///////////////////////////////////////////////////////////////////////////////
//
// IAR ANSI C/C++ Compiler V8.32.3.193/W32 for ARM        10/Jun/2019  13:48:51
// Copyright 1999-2019 IAR Systems AB.
//
//    Cpu mode     =  
//    Endian       =  little
//    Source file  =  
//        C:\Development\smart_washing_machine_3080\mbedtls\library\ssl_srv.c
//    Command line =  
//        -f C:\Users\nxf42695\AppData\Local\Temp\1\EW51E7.tmp
//        (C:\Development\smart_washing_machine_3080\mbedtls\library\ssl_srv.c
//        -D DEBUG -D USE_RTOS -D XIP_EXTERNAL_FLASH=1 -D
//        XIP_BOOT_HEADER_ENABLE=1 -D CPU_MIMXRT1052DVL6B -D FSL_RTOS_FREE_RTOS
//        -D PRINTF_ADVANCED_ENABLE -D
//        "MBEDTLS_CONFIG_FILE=\"ksdk_mbedtls_config.h\"" -lC
//        C:\Development\smart_washing_machine_3080\flexspi_nor_debug\list -lA
//        C:\Development\smart_washing_machine_3080\flexspi_nor_debug\list
//        --diag_suppress Pa082,Pa050 -o
//        C:\Development\smart_washing_machine_3080\flexspi_nor_debug\obj
//        --no_cse --no_unroll --no_inline --no_code_motion --no_tbaa
//        --no_clustering --no_scheduling --debug --endian=little
//        --cpu=Cortex-M7 -e --fpu=VFPv5_d16 --dlib_config "C:\Program Files
//        (x86)\IAR Systems\Embedded Workbench
//        8.2\arm\inc\c\DLib_Config_Normal.h" --preinclude
//        C:\Development\smart_washing_machine_3080/source\app_preinclude.h -I
//        C:\Development\smart_washing_machine_3080/board\ -I
//        C:\Development\smart_washing_machine_3080/source\ -I
//        C:\Development\smart_washing_machine_3080/CMSIS\ -I
//        C:\Development\smart_washing_machine_3080/amazon-freertos/freertos/portable\
//        -I C:\Development\smart_washing_machine_3080/amazon-freertos/include\
//        -I C:\Development\smart_washing_machine_3080/component/lists\ -I
//        C:\Development\smart_washing_machine_3080/component/serial_manager\
//        -I C:\Development\smart_washing_machine_3080/component/uart\ -I
//        C:\Development\smart_washing_machine_3080/component/kv\ -I
//        C:\Development\smart_washing_machine_3080/component/kv/include\ -I
//        C:\Development\smart_washing_machine_3080/device\ -I
//        C:\Development\smart_washing_machine_3080/doc\ -I
//        C:\Development\smart_washing_machine_3080/drivers\ -I
//        C:\Development\smart_washing_machine_3080/src\ -I
//        C:\Development\smart_washing_machine_3080/startup\ -I
//        C:\Development\smart_washing_machine_3080/utilities\ -I
//        C:\Development\smart_washing_machine_3080/xip\ -I
//        C:\Development\smart_washing_machine_3080\csdk\eng\ -I
//        C:\Development\smart_washing_machine_3080\csdk\eng\atm\ -I
//        C:\Development\smart_washing_machine_3080\csdk\eng\dev_model\ -I
//        C:\Development\smart_washing_machine_3080\csdk\eng\dev_sign\ -I
//        C:\Development\smart_washing_machine_3080\csdk\eng\infra\ -I
//        C:\Development\smart_washing_machine_3080\csdk\eng\mqtt\ -I
//        C:\Development\smart_washing_machine_3080\csdk\eng\wrappers\ -I
//        C:\Development\smart_washing_machine_3080\csdk\eng\wrappers\external_libs\
//        -I C:\Development\smart_washing_machine_3080\csdk\eng\coap_cloud\ -I
//        C:\Development\smart_washing_machine_3080\csdk\eng\coap_server\ -I
//        C:\Development\smart_washing_machine_3080\csdk\eng\coap_server\CoAPPacket\
//        -I
//        C:\Development\smart_washing_machine_3080\csdk\eng\coap_server\server\
//        -I C:\Development\smart_washing_machine_3080\csdk\eng\dev_bind\ -I
//        C:\Development\smart_washing_machine_3080\csdk\eng\dev_bind\impl\ -I
//        C:\Development\smart_washing_machine_3080\csdk\eng\dev_bind\impl\os\
//        -I
//        C:\Development\smart_washing_machine_3080\csdk\eng\dev_bind\impl\awss_reset\
//        -I C:\Development\smart_washing_machine_3080\mbedtls\include\mbedtls\
//        -I C:\Development\smart_washing_machine_3080\mbedtls\include\ -I
//        C:\Development\smart_washing_machine_3080\mbedtls\port\ksdk\ -Om)
//    Locale       =  C
//    List file    =  
//        C:\Development\smart_washing_machine_3080\flexspi_nor_debug\list\ssl_srv.s
//
///////////////////////////////////////////////////////////////////////////////

        RTMODEL "__SystemLibrary", "DLib"
        RTMODEL "__dlib_file_descriptor", "0"
        RTMODEL "__dlib_full_locale_support", "0"
        RTMODEL "__dlib_version", "6"
        AAPCS BASE,INTERWORK,VFP
        PRESERVE8
        REQUIRE8

        #define SHT_PROGBITS 0x1

        EXTERN __aeabi_memcpy
        EXTERN __aeabi_memcpy4
        EXTERN __aeabi_memset4
        EXTERN mbedtls_calloc
        EXTERN mbedtls_cipher_info_from_type
        EXTERN mbedtls_debug_print_buf
        EXTERN mbedtls_debug_print_crt
        EXTERN mbedtls_debug_print_ecp
        EXTERN mbedtls_debug_print_mpi
        EXTERN mbedtls_debug_print_msg
        EXTERN mbedtls_debug_print_ret
        EXTERN mbedtls_dhm_calc_secret
        EXTERN mbedtls_dhm_make_params
        EXTERN mbedtls_dhm_read_public
        EXTERN mbedtls_dhm_set_group
        EXTERN mbedtls_ecdh_calc_secret
        EXTERN mbedtls_ecdh_get_params
        EXTERN mbedtls_ecdh_make_params
        EXTERN mbedtls_ecdh_read_public
        EXTERN mbedtls_ecp_curve_info_from_tls_id
        EXTERN mbedtls_ecp_group_load
        EXTERN mbedtls_free
        EXTERN mbedtls_mpi_size
        EXTERN mbedtls_pk_can_do
        EXTERN mbedtls_pk_decrypt
        EXTERN mbedtls_pk_get_bitlen
        EXTERN mbedtls_pk_sign
        EXTERN mbedtls_pk_verify
        EXTERN mbedtls_platform_zeroize
        EXTERN mbedtls_ssl_check_cert_usage
        EXTERN mbedtls_ssl_check_sig_hash
        EXTERN mbedtls_ssl_ciphersuite_from_id
        EXTERN mbedtls_ssl_ciphersuite_uses_ec
        EXTERN mbedtls_ssl_ciphersuite_uses_psk
        EXTERN mbedtls_ssl_derive_keys
        EXTERN mbedtls_ssl_dtls_replay_check
        EXTERN mbedtls_ssl_dtls_replay_update
        EXTERN mbedtls_ssl_fetch_input
        EXTERN mbedtls_ssl_flight_transmit
        EXTERN mbedtls_ssl_flush_output
        EXTERN mbedtls_ssl_get_ciphersuite_name
        EXTERN mbedtls_ssl_get_ciphersuite_sig_alg
        EXTERN mbedtls_ssl_get_ciphersuite_sig_pk_alg
        EXTERN mbedtls_ssl_get_key_exchange_md_ssl_tls
        EXTERN mbedtls_ssl_get_key_exchange_md_tls1_2
        EXTERN mbedtls_ssl_handshake_wrapup
        EXTERN mbedtls_ssl_hash_from_md_alg
        EXTERN mbedtls_ssl_md_alg_from_hash
        EXTERN mbedtls_ssl_parse_certificate
        EXTERN mbedtls_ssl_parse_change_cipher_spec
        EXTERN mbedtls_ssl_parse_finished
        EXTERN mbedtls_ssl_pk_alg_from_sig
        EXTERN mbedtls_ssl_psk_derive_premaster
        EXTERN mbedtls_ssl_read_record
        EXTERN mbedtls_ssl_read_version
        EXTERN mbedtls_ssl_recv_flight_completed
        EXTERN mbedtls_ssl_send_alert_message
        EXTERN mbedtls_ssl_send_flight_completed
        EXTERN mbedtls_ssl_session_free
        EXTERN mbedtls_ssl_session_init
        EXTERN mbedtls_ssl_set_calc_verify_md
        EXTERN mbedtls_ssl_sig_from_pk_alg
        EXTERN mbedtls_ssl_sig_hash_set_add
        EXTERN mbedtls_ssl_sig_hash_set_const_hash
        EXTERN mbedtls_ssl_sig_hash_set_find
        EXTERN mbedtls_ssl_update_handshake_status
        EXTERN mbedtls_ssl_write_certificate
        EXTERN mbedtls_ssl_write_change_cipher_spec
        EXTERN mbedtls_ssl_write_finished
        EXTERN mbedtls_ssl_write_handshake_msg
        EXTERN mbedtls_ssl_write_version
        EXTERN memcmp
        EXTERN strlen

        PUBLIC mbedtls_ssl_conf_dtls_cookies
        PUBLIC mbedtls_ssl_handshake_server_step
        PUBLIC mbedtls_ssl_set_client_transport_id
        
          CFI Names cfiNames0
          CFI StackFrame CFA R13 DATA
          CFI Resource R0:32, R1:32, R2:32, R3:32, R4:32, R5:32, R6:32, R7:32
          CFI Resource R8:32, R9:32, R10:32, R11:32, R12:32, R13:32, R14:32
          CFI Resource D0:64, D1:64, D2:64, D3:64, D4:64, D5:64, D6:64, D7:64
          CFI Resource D8:64, D9:64, D10:64, D11:64, D12:64, D13:64, D14:64
          CFI Resource D15:64
          CFI EndNames cfiNames0
        
          CFI Common cfiCommon0 Using cfiNames0
          CFI CodeAlign 2
          CFI DataAlign 4
          CFI ReturnAddress R14 CODE
          CFI CFA R13+0
          CFI R0 Undefined
          CFI R1 Undefined
          CFI R2 Undefined
          CFI R3 Undefined
          CFI R4 SameValue
          CFI R5 SameValue
          CFI R6 SameValue
          CFI R7 SameValue
          CFI R8 SameValue
          CFI R9 SameValue
          CFI R10 SameValue
          CFI R11 SameValue
          CFI R12 Undefined
          CFI R14 SameValue
          CFI D0 Undefined
          CFI D1 Undefined
          CFI D2 Undefined
          CFI D3 Undefined
          CFI D4 Undefined
          CFI D5 Undefined
          CFI D6 Undefined
          CFI D7 Undefined
          CFI D8 SameValue
          CFI D9 SameValue
          CFI D10 SameValue
          CFI D11 SameValue
          CFI D12 SameValue
          CFI D13 SameValue
          CFI D14 SameValue
          CFI D15 SameValue
          CFI EndCommon cfiCommon0
        
// C:\Development\smart_washing_machine_3080\mbedtls\library\ssl_srv.c
//    1 /*
//    2  *  SSLv3/TLSv1 server-side functions
//    3  *
//    4  *  Copyright (C) 2006-2015, ARM Limited, All Rights Reserved
//    5  *  SPDX-License-Identifier: Apache-2.0
//    6  *
//    7  *  Licensed under the Apache License, Version 2.0 (the "License"); you may
//    8  *  not use this file except in compliance with the License.
//    9  *  You may obtain a copy of the License at
//   10  *
//   11  *  http://www.apache.org/licenses/LICENSE-2.0
//   12  *
//   13  *  Unless required by applicable law or agreed to in writing, software
//   14  *  distributed under the License is distributed on an "AS IS" BASIS, WITHOUT
//   15  *  WARRANTIES OR CONDITIONS OF ANY KIND, either express or implied.
//   16  *  See the License for the specific language governing permissions and
//   17  *  limitations under the License.
//   18  *
//   19  *  This file is part of mbed TLS (https://tls.mbed.org)
//   20  */
//   21 
//   22 #if !defined(MBEDTLS_CONFIG_FILE)
//   23 #include "mbedtls/config.h"
//   24 #else
//   25 #include MBEDTLS_CONFIG_FILE
//   26 #endif
//   27 
//   28 #if defined(MBEDTLS_SSL_SRV_C)
//   29 
//   30 #if defined(MBEDTLS_PLATFORM_C)
//   31 #include "mbedtls/platform.h"
//   32 #else
//   33 #include <stdlib.h>
//   34 #define mbedtls_calloc    calloc
//   35 #define mbedtls_free      free
//   36 #endif
//   37 
//   38 #include "mbedtls/debug.h"

        SECTION `.text`:CODE:NOROOT(1)
          CFI Block cfiBlock0 Using cfiCommon0
          CFI Function mbedtls_pk_ec
          CFI NoCalls
        THUMB
// static __interwork __softfp mbedtls_ecp_keypair *mbedtls_pk_ec(mbedtls_pk_context const)
mbedtls_pk_ec:
        MOV      R0,R1
        BX       LR               ;; return
          CFI EndBlock cfiBlock0

        SECTION `.text`:CODE:NOROOT(1)
          CFI Block cfiBlock1 Using cfiCommon0
          CFI Function mbedtls_pk_get_len
        THUMB
// static __interwork __softfp size_t mbedtls_pk_get_len(mbedtls_pk_context const *)
mbedtls_pk_get_len:
        PUSH     {R7,LR}
          CFI R14 Frame(CFA, -4)
          CFI CFA R13+8
          CFI FunCall mbedtls_pk_get_bitlen
        BL       mbedtls_pk_get_bitlen
        ADDS     R0,R0,#+7
        LSRS     R0,R0,#+3
        POP      {R1,PC}          ;; return
          CFI EndBlock cfiBlock1

        SECTION `.text`:CODE:NOROOT(1)
          CFI Block cfiBlock2 Using cfiCommon0
          CFI Function mbedtls_ssl_ciphersuite_no_pfs
          CFI NoCalls
        THUMB
// static __interwork __softfp int mbedtls_ssl_ciphersuite_no_pfs(mbedtls_ssl_ciphersuite_t const *)
mbedtls_ssl_ciphersuite_no_pfs:
        LDRB     R0,[R0, #+10]
        CMP      R0,#+1
        BEQ.N    ??mbedtls_ssl_ciphersuite_no_pfs_0
        CMP      R0,#+5
        BEQ.N    ??mbedtls_ssl_ciphersuite_no_pfs_0
        CMP      R0,#+7
        BEQ.N    ??mbedtls_ssl_ciphersuite_no_pfs_0
        CMP      R0,#+9
        BEQ.N    ??mbedtls_ssl_ciphersuite_no_pfs_0
        CMP      R0,#+10
        BNE.N    ??mbedtls_ssl_ciphersuite_no_pfs_1
??mbedtls_ssl_ciphersuite_no_pfs_0:
        MOVS     R0,#+1
        BX       LR
??mbedtls_ssl_ciphersuite_no_pfs_1:
        MOVS     R0,#+0
        BX       LR               ;; return
          CFI EndBlock cfiBlock2

        SECTION `.text`:CODE:NOROOT(1)
          CFI Block cfiBlock3 Using cfiCommon0
          CFI Function mbedtls_ssl_ciphersuite_uses_ecdh
          CFI NoCalls
        THUMB
// static __interwork __softfp int mbedtls_ssl_ciphersuite_uses_ecdh(mbedtls_ssl_ciphersuite_t const *)
mbedtls_ssl_ciphersuite_uses_ecdh:
        LDRB     R0,[R0, #+10]
        SUBS     R0,R0,#+9
        CMP      R0,#+1
        BHI.N    ??mbedtls_ssl_ciphersuite_uses_ecdh_0
        MOVS     R0,#+1
        BX       LR
??mbedtls_ssl_ciphersuite_uses_ecdh_0:
        MOVS     R0,#+0
        BX       LR               ;; return
          CFI EndBlock cfiBlock3

        SECTION `.text`:CODE:NOROOT(1)
          CFI Block cfiBlock4 Using cfiCommon0
          CFI Function mbedtls_ssl_ciphersuite_uses_dhe
          CFI NoCalls
        THUMB
// static __interwork __softfp int mbedtls_ssl_ciphersuite_uses_dhe(mbedtls_ssl_ciphersuite_t const *)
mbedtls_ssl_ciphersuite_uses_dhe:
        LDRB     R0,[R0, #+10]
        CMP      R0,#+2
        BEQ.N    ??mbedtls_ssl_ciphersuite_uses_dhe_0
        CMP      R0,#+6
        BNE.N    ??mbedtls_ssl_ciphersuite_uses_dhe_1
??mbedtls_ssl_ciphersuite_uses_dhe_0:
        MOVS     R0,#+1
        BX       LR
??mbedtls_ssl_ciphersuite_uses_dhe_1:
        MOVS     R0,#+0
        BX       LR               ;; return
          CFI EndBlock cfiBlock4

        SECTION `.text`:CODE:NOROOT(1)
          CFI Block cfiBlock5 Using cfiCommon0
          CFI Function mbedtls_ssl_ciphersuite_uses_ecdhe
          CFI NoCalls
        THUMB
// static __interwork __softfp int mbedtls_ssl_ciphersuite_uses_ecdhe(mbedtls_ssl_ciphersuite_t const *)
mbedtls_ssl_ciphersuite_uses_ecdhe:
        LDRB     R0,[R0, #+10]
        SUBS     R0,R0,#+3
        CMP      R0,#+1
        BLS.N    ??mbedtls_ssl_ciphersuite_uses_ecdhe_0
        SUBS     R0,R0,#+5
        BNE.N    ??mbedtls_ssl_ciphersuite_uses_ecdhe_1
??mbedtls_ssl_ciphersuite_uses_ecdhe_0:
        MOVS     R0,#+1
        BX       LR
??mbedtls_ssl_ciphersuite_uses_ecdhe_1:
        MOVS     R0,#+0
        BX       LR               ;; return
          CFI EndBlock cfiBlock5

        SECTION `.text`:CODE:NOROOT(1)
          CFI Block cfiBlock6 Using cfiCommon0
          CFI Function mbedtls_ssl_ciphersuite_uses_server_signature
          CFI NoCalls
        THUMB
// static __interwork __softfp int mbedtls_ssl_ciphersuite_uses_server_signature(mbedtls_ssl_ciphersuite_t const *)
mbedtls_ssl_ciphersuite_uses_server_signature:
        LDRB     R0,[R0, #+10]
        SUBS     R0,R0,#+2
        CMP      R0,#+2
        BHI.N    ??mbedtls_ssl_ciphersuite_uses_server_signature_0
        MOVS     R0,#+1
        BX       LR
??mbedtls_ssl_ciphersuite_uses_server_signature_0:
        MOVS     R0,#+0
        BX       LR               ;; return
          CFI EndBlock cfiBlock6
//   39 #include "mbedtls/ssl.h"
//   40 #include "mbedtls/ssl_internal.h"

        SECTION `.text`:CODE:NOROOT(1)
          CFI Block cfiBlock7 Using cfiCommon0
          CFI Function mbedtls_ssl_own_key
          CFI NoCalls
        THUMB
// static __interwork __softfp mbedtls_pk_context *mbedtls_ssl_own_key(mbedtls_ssl_context *)
mbedtls_ssl_own_key:
        LDR      R1,[R0, #+60]
        CMP      R1,#+0
        BEQ.N    ??mbedtls_ssl_own_key_0
        LDR      R1,[R1, #+448]
        CMP      R1,#+0
        BEQ.N    ??mbedtls_ssl_own_key_0
        MOV      R0,R1
        B.N      ??mbedtls_ssl_own_key_1
??mbedtls_ssl_own_key_0:
        LDR      R0,[R0, #+0]
        LDR      R0,[R0, #+104]
??mbedtls_ssl_own_key_1:
        CMP      R0,#+0
        BNE.N    ??mbedtls_ssl_own_key_2
        MOVS     R0,#+0
        BX       LR
??mbedtls_ssl_own_key_2:
        LDR      R0,[R0, #+4]
        BX       LR               ;; return
          CFI EndBlock cfiBlock7

        SECTION `.text`:CODE:NOROOT(1)
          CFI Block cfiBlock8 Using cfiCommon0
          CFI Function mbedtls_ssl_own_cert
          CFI NoCalls
        THUMB
// static __interwork __softfp mbedtls_x509_crt *mbedtls_ssl_own_cert(mbedtls_ssl_context *)
mbedtls_ssl_own_cert:
        LDR      R1,[R0, #+60]
        CMP      R1,#+0
        BEQ.N    ??mbedtls_ssl_own_cert_0
        LDR      R1,[R1, #+448]
        CMP      R1,#+0
        BEQ.N    ??mbedtls_ssl_own_cert_0
        MOV      R0,R1
        B.N      ??mbedtls_ssl_own_cert_1
??mbedtls_ssl_own_cert_0:
        LDR      R0,[R0, #+0]
        LDR      R0,[R0, #+104]
??mbedtls_ssl_own_cert_1:
        CMP      R0,#+0
        BNE.N    ??mbedtls_ssl_own_cert_2
        MOVS     R0,#+0
        BX       LR
??mbedtls_ssl_own_cert_2:
        LDR      R0,[R0, #+0]
        BX       LR               ;; return
          CFI EndBlock cfiBlock8

        SECTION `.text`:CODE:NOROOT(1)
          CFI Block cfiBlock9 Using cfiCommon0
          CFI Function mbedtls_ssl_hdr_len
          CFI NoCalls
        THUMB
// static __interwork __softfp size_t mbedtls_ssl_hdr_len(mbedtls_ssl_context const *)
mbedtls_ssl_hdr_len:
        LDR      R0,[R0, #+0]
        LDR      R0,[R0, #+204]
        UBFX     R0,R0,#+1,#+1
        CMP      R0,#+0
        BEQ.N    ??mbedtls_ssl_hdr_len_0
        MOVS     R0,#+13
        BX       LR
??mbedtls_ssl_hdr_len_0:
        MOVS     R0,#+5
        BX       LR               ;; return
          CFI EndBlock cfiBlock9

        SECTION `.text`:CODE:NOROOT(1)
          CFI Block cfiBlock10 Using cfiCommon0
          CFI Function mbedtls_ssl_hs_hdr_len
          CFI NoCalls
        THUMB
// static __interwork __softfp size_t mbedtls_ssl_hs_hdr_len(mbedtls_ssl_context const *)
mbedtls_ssl_hs_hdr_len:
        LDR      R0,[R0, #+0]
        LDR      R0,[R0, #+204]
        UBFX     R0,R0,#+1,#+1
        CMP      R0,#+0
        BEQ.N    ??mbedtls_ssl_hs_hdr_len_0
        MOVS     R0,#+12
        BX       LR
??mbedtls_ssl_hs_hdr_len_0:
        MOVS     R0,#+4
        BX       LR               ;; return
          CFI EndBlock cfiBlock10

        SECTION `.text`:CODE:NOROOT(1)
          CFI Block cfiBlock11 Using cfiCommon0
          CFI Function mbedtls_ssl_safer_memcmp
          CFI NoCalls
        THUMB
// static __interwork __softfp int mbedtls_ssl_safer_memcmp(void const *, void const *, size_t)
mbedtls_ssl_safer_memcmp:
        PUSH     {R3-R6}
          CFI R6 Frame(CFA, -4)
          CFI R5 Frame(CFA, -8)
          CFI R4 Frame(CFA, -12)
          CFI CFA R13+16
        MOVS     R3,#+0
        STRB     R3,[SP, #+0]
        B.N      ??mbedtls_ssl_safer_memcmp_0
??mbedtls_ssl_safer_memcmp_1:
        LDRB     R4,[R0, R3]
        LDRB     R5,[R1, R3]
        LDRB     R6,[SP, #+0]
        EORS     R4,R5,R4
        ORRS     R4,R4,R6
        STRB     R4,[SP, #+0]
        ADDS     R3,R3,#+1
??mbedtls_ssl_safer_memcmp_0:
        CMP      R3,R2
        BCC.N    ??mbedtls_ssl_safer_memcmp_1
        LDRB     R0,[SP, #+0]
        POP      {R1,R4-R6}
          CFI R4 SameValue
          CFI R5 SameValue
          CFI R6 SameValue
          CFI CFA R13+0
        BX       LR               ;; return
          CFI EndBlock cfiBlock11
//   41 #include "mbedtls/platform_util.h"
//   42 
//   43 #include <string.h>
//   44 
//   45 #if defined(MBEDTLS_ECP_C)
//   46 #include "mbedtls/ecp.h"
//   47 #endif
//   48 
//   49 #if defined(MBEDTLS_HAVE_TIME)
//   50 #include "mbedtls/platform_time.h"
//   51 #endif
//   52 
//   53 #if defined(MBEDTLS_SSL_DTLS_HELLO_VERIFY)

        SECTION `.text`:CODE:NOROOT(1)
          CFI Block cfiBlock12 Using cfiCommon0
          CFI Function mbedtls_ssl_set_client_transport_id
        THUMB
//   54 int mbedtls_ssl_set_client_transport_id( mbedtls_ssl_context *ssl,
//   55                                  const unsigned char *info,
//   56                                  size_t ilen )
//   57 {
mbedtls_ssl_set_client_transport_id:
        PUSH     {R4-R6,LR}
          CFI R14 Frame(CFA, -4)
          CFI R6 Frame(CFA, -8)
          CFI R5 Frame(CFA, -12)
          CFI R4 Frame(CFA, -16)
          CFI CFA R13+16
        MOV      R4,R0
        MOV      R5,R1
        MOV      R6,R2
//   58     if( ssl->conf->endpoint != MBEDTLS_SSL_IS_SERVER )
        LDR      R0,[R4, #+0]
        LDRB     R0,[R0, #+204]
        LSLS     R0,R0,#+31
        BMI.N    ??mbedtls_ssl_set_client_transport_id_0
//   59         return( MBEDTLS_ERR_SSL_BAD_INPUT_DATA );
        LDR.W    R0,??DataTable14  ;; 0xffff8f00
        POP      {R4-R6,PC}
//   60 
//   61     mbedtls_free( ssl->cli_id );
??mbedtls_ssl_set_client_transport_id_0:
        LDR      R0,[R4, #+236]
          CFI FunCall mbedtls_free
        BL       mbedtls_free
//   62 
//   63     if( ( ssl->cli_id = mbedtls_calloc( 1, ilen ) ) == NULL )
        MOV      R1,R6
        MOVS     R0,#+1
          CFI FunCall mbedtls_calloc
        BL       mbedtls_calloc
        STR      R0,[R4, #+236]
        CMP      R0,#+0
        BNE.N    ??mbedtls_ssl_set_client_transport_id_1
//   64         return( MBEDTLS_ERR_SSL_ALLOC_FAILED );
        LDR.W    R0,??DataTable14_1  ;; 0xffff8100
        POP      {R4-R6,PC}
//   65 
//   66     memcpy( ssl->cli_id, info, ilen );
??mbedtls_ssl_set_client_transport_id_1:
        MOV      R2,R6
        MOV      R1,R5
          CFI FunCall __aeabi_memcpy
        BL       __aeabi_memcpy
//   67     ssl->cli_id_len = ilen;
        STR      R6,[R4, #+240]
//   68 
//   69     return( 0 );
        MOVS     R0,#+0
        POP      {R4-R6,PC}       ;; return
//   70 }
          CFI EndBlock cfiBlock12
//   71 

        SECTION `.text`:CODE:NOROOT(1)
          CFI Block cfiBlock13 Using cfiCommon0
          CFI Function mbedtls_ssl_conf_dtls_cookies
          CFI NoCalls
        THUMB
//   72 void mbedtls_ssl_conf_dtls_cookies( mbedtls_ssl_config *conf,
//   73                            mbedtls_ssl_cookie_write_t *f_cookie_write,
//   74                            mbedtls_ssl_cookie_check_t *f_cookie_check,
//   75                            void *p_cookie )
//   76 {
//   77     conf->f_cookie_write = f_cookie_write;
mbedtls_ssl_conf_dtls_cookies:
        STR      R1,[R0, #+68]
//   78     conf->f_cookie_check = f_cookie_check;
        STR      R2,[R0, #+72]
//   79     conf->p_cookie       = p_cookie;
        STR      R3,[R0, #+76]
//   80 }
        BX       LR               ;; return
          CFI EndBlock cfiBlock13
//   81 #endif /* MBEDTLS_SSL_DTLS_HELLO_VERIFY */
//   82 
//   83 #if defined(MBEDTLS_SSL_SERVER_NAME_INDICATION)

        SECTION `.text`:CODE:NOROOT(1)
          CFI Block cfiBlock14 Using cfiCommon0
          CFI Function ssl_parse_servername_ext
        THUMB
//   84 static int ssl_parse_servername_ext( mbedtls_ssl_context *ssl,
//   85                                      const unsigned char *buf,
//   86                                      size_t len )
//   87 {
ssl_parse_servername_ext:
        PUSH     {R1-R7,LR}
          CFI R14 Frame(CFA, -4)
          CFI R7 Frame(CFA, -8)
          CFI R6 Frame(CFA, -12)
          CFI R5 Frame(CFA, -16)
          CFI R4 Frame(CFA, -20)
          CFI CFA R13+32
        MOV      R4,R0
        MOV      R6,R1
        MOV      R7,R2
//   88     int ret;
//   89     size_t servername_list_size, hostname_len;
//   90     const unsigned char *p;
//   91 
//   92     MBEDTLS_SSL_DEBUG_MSG( 3, ( "parse ServerName extension" ) );
        LDR.W    R5,??DataTable14_2
        LDR.W    R0,??DataTable14_3
        STR      R0,[SP, #+0]
        MOVS     R3,#+92
        MOV      R2,R5
        MOVS     R1,#+3
        MOV      R0,R4
          CFI FunCall mbedtls_debug_print_msg
        BL       mbedtls_debug_print_msg
//   93 
//   94     if( len < 2 )
        CMP      R7,#+2
        BCS.N    ??ssl_parse_servername_ext_0
//   95     {
//   96         MBEDTLS_SSL_DEBUG_MSG( 1, ( "bad client hello message" ) );
        LDR.W    R0,??DataTable14_4
        STR      R0,[SP, #+0]
        MOVS     R3,#+96
        MOV      R2,R5
        MOVS     R1,#+1
        MOV      R0,R4
          CFI FunCall mbedtls_debug_print_msg
        BL       mbedtls_debug_print_msg
//   97         mbedtls_ssl_send_alert_message( ssl, MBEDTLS_SSL_ALERT_LEVEL_FATAL,
//   98                                        MBEDTLS_SSL_ALERT_MSG_DECODE_ERROR );
        MOVS     R2,#+50
        MOVS     R1,#+2
        MOV      R0,R4
          CFI FunCall mbedtls_ssl_send_alert_message
        BL       mbedtls_ssl_send_alert_message
//   99         return( MBEDTLS_ERR_SSL_BAD_HS_CLIENT_HELLO );
        LDR.W    R0,??DataTable14_5  ;; 0xffff8700
        POP      {R1-R7,PC}
//  100     }
//  101     servername_list_size = ( ( buf[0] << 8 ) | ( buf[1] ) );
??ssl_parse_servername_ext_0:
        LDRB     R0,[R6, #+0]
        LDRB     R1,[R6, #+1]
        ORR      R1,R1,R0, LSL #+8
//  102     if( servername_list_size + 2 != len )
        ADDS     R0,R1,#+2
        CMP      R0,R7
        BEQ.N    ??ssl_parse_servername_ext_1
//  103     {
//  104         MBEDTLS_SSL_DEBUG_MSG( 1, ( "bad client hello message" ) );
        LDR.W    R0,??DataTable14_4
        STR      R0,[SP, #+0]
        MOVS     R3,#+104
        MOV      R2,R5
        MOVS     R1,#+1
        MOV      R0,R4
          CFI FunCall mbedtls_debug_print_msg
        BL       mbedtls_debug_print_msg
//  105         mbedtls_ssl_send_alert_message( ssl, MBEDTLS_SSL_ALERT_LEVEL_FATAL,
//  106                                         MBEDTLS_SSL_ALERT_MSG_DECODE_ERROR );
        MOVS     R2,#+50
        MOVS     R1,#+2
        MOV      R0,R4
          CFI FunCall mbedtls_ssl_send_alert_message
        BL       mbedtls_ssl_send_alert_message
//  107         return( MBEDTLS_ERR_SSL_BAD_HS_CLIENT_HELLO );
        LDR.W    R0,??DataTable14_5  ;; 0xffff8700
        POP      {R1-R7,PC}
//  108     }
//  109 
//  110     p = buf + 2;
??ssl_parse_servername_ext_1:
        ADDS     R2,R6,#+2
        B.N      ??ssl_parse_servername_ext_2
//  111     while( servername_list_size > 2 )
//  112     {
//  113         hostname_len = ( ( p[1] << 8 ) | p[2] );
//  114         if( hostname_len + 3 > servername_list_size )
//  115         {
//  116             MBEDTLS_SSL_DEBUG_MSG( 1, ( "bad client hello message" ) );
//  117             mbedtls_ssl_send_alert_message( ssl, MBEDTLS_SSL_ALERT_LEVEL_FATAL,
//  118                                             MBEDTLS_SSL_ALERT_MSG_DECODE_ERROR );
//  119             return( MBEDTLS_ERR_SSL_BAD_HS_CLIENT_HELLO );
//  120         }
//  121 
//  122         if( p[0] == MBEDTLS_TLS_EXT_SERVERNAME_HOSTNAME )
??ssl_parse_servername_ext_3:
        LDRB     R0,[R2, #+0]
        CMP      R0,#+0
        BEQ.N    ??ssl_parse_servername_ext_4
//  123         {
//  124             ret = ssl->conf->f_sni( ssl->conf->p_sni,
//  125                                     ssl, p + 3, hostname_len );
//  126             if( ret != 0 )
//  127             {
//  128                 MBEDTLS_SSL_DEBUG_RET( 1, "ssl_sni_wrapper", ret );
//  129                 mbedtls_ssl_send_alert_message( ssl, MBEDTLS_SSL_ALERT_LEVEL_FATAL,
//  130                         MBEDTLS_SSL_ALERT_MSG_UNRECOGNIZED_NAME );
//  131                 return( MBEDTLS_ERR_SSL_BAD_HS_CLIENT_HELLO );
//  132             }
//  133             return( 0 );
//  134         }
//  135 
//  136         servername_list_size -= hostname_len + 3;
        SUBS     R1,R1,R3
        SUBS     R1,R1,#+3
//  137         p += hostname_len + 3;
        ADDS     R0,R2,R3
        ADDS     R2,R0,#+3
??ssl_parse_servername_ext_2:
        CMP      R1,#+3
        BCC.N    ??ssl_parse_servername_ext_5
        LDRB     R0,[R2, #+1]
        LDRB     R3,[R2, #+2]
        ORR      R3,R3,R0, LSL #+8
        ADDS     R0,R3,#+3
        CMP      R1,R0
        BCS.N    ??ssl_parse_servername_ext_3
        LDR.W    R0,??DataTable14_4
        STR      R0,[SP, #+0]
        MOVS     R3,#+116
        MOV      R2,R5
        MOVS     R1,#+1
        MOV      R0,R4
          CFI FunCall mbedtls_debug_print_msg
        BL       mbedtls_debug_print_msg
        MOVS     R2,#+50
        MOVS     R1,#+2
        MOV      R0,R4
          CFI FunCall mbedtls_ssl_send_alert_message
        BL       mbedtls_ssl_send_alert_message
        LDR.W    R0,??DataTable14_5  ;; 0xffff8700
        POP      {R1-R7,PC}
??ssl_parse_servername_ext_4:
        ADDS     R2,R2,#+3
        MOV      R1,R4
        LDR      R0,[R4, #+0]
        LDR      R0,[R0, #+48]
        LDR      R6,[R4, #+0]
        LDR      R6,[R6, #+44]
          CFI FunCall
        BLX      R6
        CMP      R0,#+0
        BEQ.N    ??ssl_parse_servername_ext_6
        STR      R0,[SP, #+4]
        LDR.W    R0,??DataTable14_6
        STR      R0,[SP, #+0]
        MOVS     R3,#+128
        MOV      R2,R5
        MOVS     R1,#+1
        MOV      R0,R4
          CFI FunCall mbedtls_debug_print_ret
        BL       mbedtls_debug_print_ret
        MOVS     R2,#+112
        MOVS     R1,#+2
        MOV      R0,R4
          CFI FunCall mbedtls_ssl_send_alert_message
        BL       mbedtls_ssl_send_alert_message
        LDR.W    R0,??DataTable14_5  ;; 0xffff8700
        POP      {R1-R7,PC}
??ssl_parse_servername_ext_6:
        MOVS     R0,#+0
        POP      {R1-R7,PC}
//  138     }
//  139 
//  140     if( servername_list_size != 0 )
//  141     {
//  142         MBEDTLS_SSL_DEBUG_MSG( 1, ( "bad client hello message" ) );
//  143         mbedtls_ssl_send_alert_message( ssl, MBEDTLS_SSL_ALERT_LEVEL_FATAL,
//  144                                         MBEDTLS_SSL_ALERT_MSG_ILLEGAL_PARAMETER );
//  145         return( MBEDTLS_ERR_SSL_BAD_HS_CLIENT_HELLO );
//  146     }
//  147 
//  148     return( 0 );
??ssl_parse_servername_ext_7:
        MOVS     R0,#+0
        POP      {R1-R7,PC}       ;; return
??ssl_parse_servername_ext_5:
        CMP      R1,#+0
        BEQ.N    ??ssl_parse_servername_ext_7
        LDR.W    R0,??DataTable14_4
        STR      R0,[SP, #+0]
        MOVS     R3,#+142
        MOV      R2,R5
        MOVS     R1,#+1
        MOV      R0,R4
          CFI FunCall mbedtls_debug_print_msg
        BL       mbedtls_debug_print_msg
        MOVS     R2,#+47
        MOVS     R1,#+2
        MOV      R0,R4
          CFI FunCall mbedtls_ssl_send_alert_message
        BL       mbedtls_ssl_send_alert_message
        LDR.W    R0,??DataTable14_5  ;; 0xffff8700
        POP      {R1-R7,PC}
//  149 }
          CFI EndBlock cfiBlock14
//  150 #endif /* MBEDTLS_SSL_SERVER_NAME_INDICATION */
//  151 

        SECTION `.text`:CODE:NOROOT(1)
          CFI Block cfiBlock15 Using cfiCommon0
          CFI Function ssl_parse_renegotiation_info
        THUMB
//  152 static int ssl_parse_renegotiation_info( mbedtls_ssl_context *ssl,
//  153                                          const unsigned char *buf,
//  154                                          size_t len )
//  155 {
ssl_parse_renegotiation_info:
        PUSH     {R2-R4,LR}
          CFI R14 Frame(CFA, -4)
          CFI R4 Frame(CFA, -8)
          CFI CFA R13+16
        MOV      R4,R0
        MOV      R3,R1
//  156 #if defined(MBEDTLS_SSL_RENEGOTIATION)
//  157     if( ssl->renego_status != MBEDTLS_SSL_INITIAL_HANDSHAKE )
        LDR      R0,[R4, #+8]
        CMP      R0,#+0
        BEQ.N    ??ssl_parse_renegotiation_info_0
//  158     {
//  159         /* Check verify-data in constant-time. The length OTOH is no secret */
//  160         if( len    != 1 + ssl->verify_data_len ||
//  161             buf[0] !=     ssl->verify_data_len ||
//  162             mbedtls_ssl_safer_memcmp( buf + 1, ssl->peer_verify_data,
//  163                           ssl->verify_data_len ) != 0 )
        LDR      R0,[R4, #+248]
        ADDS     R0,R0,#+1
        CMP      R2,R0
        BNE.N    ??ssl_parse_renegotiation_info_1
        LDRB     R0,[R3, #+0]
        LDR      R1,[R4, #+248]
        CMP      R0,R1
        BNE.N    ??ssl_parse_renegotiation_info_1
        MOV      R2,R1
        ADD      R1,R4,#+264
        ADDS     R0,R3,#+1
          CFI FunCall mbedtls_ssl_safer_memcmp
        BL       mbedtls_ssl_safer_memcmp
        CMP      R0,#+0
        BEQ.N    ??ssl_parse_renegotiation_info_2
//  164         {
//  165             MBEDTLS_SSL_DEBUG_MSG( 1, ( "non-matching renegotiation info" ) );
??ssl_parse_renegotiation_info_1:
        LDR.W    R0,??DataTable14_7
        STR      R0,[SP, #+0]
        MOVS     R3,#+165
        LDR.W    R2,??DataTable14_2
        MOVS     R1,#+1
        MOV      R0,R4
          CFI FunCall mbedtls_debug_print_msg
        BL       mbedtls_debug_print_msg
//  166             mbedtls_ssl_send_alert_message( ssl, MBEDTLS_SSL_ALERT_LEVEL_FATAL,
//  167                                             MBEDTLS_SSL_ALERT_MSG_HANDSHAKE_FAILURE );
        MOVS     R2,#+40
        MOVS     R1,#+2
        MOV      R0,R4
          CFI FunCall mbedtls_ssl_send_alert_message
        BL       mbedtls_ssl_send_alert_message
//  168             return( MBEDTLS_ERR_SSL_BAD_HS_CLIENT_HELLO );
        LDR.W    R0,??DataTable14_5  ;; 0xffff8700
        POP      {R1,R2,R4,PC}
//  169         }
//  170     }
//  171     else
//  172 #endif /* MBEDTLS_SSL_RENEGOTIATION */
//  173     {
//  174         if( len != 1 || buf[0] != 0x0 )
??ssl_parse_renegotiation_info_0:
        CMP      R2,#+1
        BNE.N    ??ssl_parse_renegotiation_info_3
        LDRB     R0,[R3, #+0]
        CMP      R0,#+0
        BEQ.N    ??ssl_parse_renegotiation_info_4
//  175         {
//  176             MBEDTLS_SSL_DEBUG_MSG( 1, ( "non-zero length renegotiation info" ) );
??ssl_parse_renegotiation_info_3:
        LDR.W    R0,??DataTable14_8
        STR      R0,[SP, #+0]
        MOVS     R3,#+176
        LDR.W    R2,??DataTable14_2
        MOVS     R1,#+1
        MOV      R0,R4
          CFI FunCall mbedtls_debug_print_msg
        BL       mbedtls_debug_print_msg
//  177             mbedtls_ssl_send_alert_message( ssl, MBEDTLS_SSL_ALERT_LEVEL_FATAL,
//  178                                             MBEDTLS_SSL_ALERT_MSG_HANDSHAKE_FAILURE );
        MOVS     R2,#+40
        MOVS     R1,#+2
        MOV      R0,R4
          CFI FunCall mbedtls_ssl_send_alert_message
        BL       mbedtls_ssl_send_alert_message
//  179             return( MBEDTLS_ERR_SSL_BAD_HS_CLIENT_HELLO );
        LDR.W    R0,??DataTable14_5  ;; 0xffff8700
        POP      {R1,R2,R4,PC}
//  180         }
//  181 
//  182         ssl->secure_renegotiation = MBEDTLS_SSL_SECURE_RENEGOTIATION;
??ssl_parse_renegotiation_info_4:
        MOVS     R0,#+1
        STR      R0,[R4, #+244]
//  183     }
//  184 
//  185     return( 0 );
??ssl_parse_renegotiation_info_2:
        MOVS     R0,#+0
        POP      {R1,R2,R4,PC}    ;; return
//  186 }
          CFI EndBlock cfiBlock15
//  187 
//  188 #if defined(MBEDTLS_SSL_PROTO_TLS1_2) && \ 
//  189     defined(MBEDTLS_KEY_EXCHANGE__WITH_CERT__ENABLED)
//  190 
//  191 /*
//  192  * Status of the implementation of signature-algorithms extension:
//  193  *
//  194  * Currently, we are only considering the signature-algorithm extension
//  195  * to pick a ciphersuite which allows us to send the ServerKeyExchange
//  196  * message with a signature-hash combination that the user allows.
//  197  *
//  198  * We do *not* check whether all certificates in our certificate
//  199  * chain are signed with an allowed signature-hash pair.
//  200  * This needs to be done at a later stage.
//  201  *
//  202  */

        SECTION `.text`:CODE:NOROOT(1)
          CFI Block cfiBlock16 Using cfiCommon0
          CFI Function ssl_parse_signature_algorithms_ext
        THUMB
//  203 static int ssl_parse_signature_algorithms_ext( mbedtls_ssl_context *ssl,
//  204                                                const unsigned char *buf,
//  205                                                size_t len )
//  206 {
ssl_parse_signature_algorithms_ext:
        PUSH     {R0-R8,LR}
          CFI R14 Frame(CFA, -4)
          CFI R8 Frame(CFA, -8)
          CFI R7 Frame(CFA, -12)
          CFI R6 Frame(CFA, -16)
          CFI R5 Frame(CFA, -20)
          CFI R4 Frame(CFA, -24)
          CFI CFA R13+40
        MOV      R4,R0
//  207     size_t sig_alg_list_size;
//  208 
//  209     const unsigned char *p;
//  210     const unsigned char *end = buf + len;
        ADDS     R5,R1,R2
//  211 
//  212     mbedtls_md_type_t md_cur;
//  213     mbedtls_pk_type_t sig_cur;
//  214 
//  215     if ( len < 2 ) {
        CMP      R2,#+2
        BCS.N    ??ssl_parse_signature_algorithms_ext_0
//  216         MBEDTLS_SSL_DEBUG_MSG( 1, ( "bad client hello message" ) );
        LDR.W    R0,??DataTable14_4
        STR      R0,[SP, #+0]
        MOVS     R3,#+216
        LDR.W    R2,??DataTable14_2
        MOVS     R1,#+1
        MOV      R0,R4
          CFI FunCall mbedtls_debug_print_msg
        BL       mbedtls_debug_print_msg
//  217         mbedtls_ssl_send_alert_message( ssl, MBEDTLS_SSL_ALERT_LEVEL_FATAL,
//  218                                        MBEDTLS_SSL_ALERT_MSG_DECODE_ERROR );
        MOVS     R2,#+50
        MOVS     R1,#+2
        MOV      R0,R4
          CFI FunCall mbedtls_ssl_send_alert_message
        BL       mbedtls_ssl_send_alert_message
//  219         return( MBEDTLS_ERR_SSL_BAD_HS_CLIENT_HELLO );
        LDR.W    R0,??DataTable14_5  ;; 0xffff8700
        B.N      ??ssl_parse_signature_algorithms_ext_1
//  220     }
//  221     sig_alg_list_size = ( ( buf[0] << 8 ) | ( buf[1] ) );
??ssl_parse_signature_algorithms_ext_0:
        LDRB     R3,[R1, #+0]
        LDRB     R0,[R1, #+1]
        ORR      R0,R0,R3, LSL #+8
//  222     if( sig_alg_list_size + 2 != len ||
//  223         sig_alg_list_size % 2 != 0 )
        ADDS     R3,R0,#+2
        CMP      R3,R2
        BNE.N    ??ssl_parse_signature_algorithms_ext_2
        LSLS     R0,R0,#+31
        BPL.N    ??ssl_parse_signature_algorithms_ext_3
//  224     {
//  225         MBEDTLS_SSL_DEBUG_MSG( 1, ( "bad client hello message" ) );
??ssl_parse_signature_algorithms_ext_2:
        LDR.W    R0,??DataTable14_4
        STR      R0,[SP, #+0]
        MOVS     R3,#+225
        LDR.W    R2,??DataTable14_2
        MOVS     R1,#+1
        MOV      R0,R4
          CFI FunCall mbedtls_debug_print_msg
        BL       mbedtls_debug_print_msg
//  226         mbedtls_ssl_send_alert_message( ssl, MBEDTLS_SSL_ALERT_LEVEL_FATAL,
//  227                                         MBEDTLS_SSL_ALERT_MSG_DECODE_ERROR );
        MOVS     R2,#+50
        MOVS     R1,#+2
        MOV      R0,R4
          CFI FunCall mbedtls_ssl_send_alert_message
        BL       mbedtls_ssl_send_alert_message
//  228         return( MBEDTLS_ERR_SSL_BAD_HS_CLIENT_HELLO );
        LDR.W    R0,??DataTable14_5  ;; 0xffff8700
        B.N      ??ssl_parse_signature_algorithms_ext_1
//  229     }
//  230 
//  231     /* Currently we only guarantee signing the ServerKeyExchange message according
//  232      * to the constraints specified in this extension (see above), so it suffices
//  233      * to remember only one suitable hash for each possible signature algorithm.
//  234      *
//  235      * This will change when we also consider certificate signatures,
//  236      * in which case we will need to remember the whole signature-hash
//  237      * pair list from the extension.
//  238      */
//  239 
//  240     for( p = buf + 2; p < end; p += 2 )
??ssl_parse_signature_algorithms_ext_3:
        ADDS     R6,R1,#+2
        B.N      ??ssl_parse_signature_algorithms_ext_4
//  241     {
//  242         /* Silently ignore unknown signature or hash algorithms. */
//  243 
//  244         if( ( sig_cur = mbedtls_ssl_pk_alg_from_sig( p[1] ) ) == MBEDTLS_PK_NONE )
//  245         {
//  246             MBEDTLS_SSL_DEBUG_MSG( 3, ( "client hello v3, signature_algorithm ext"
//  247                                         " unknown sig alg encoding %d", p[1] ) );
//  248             continue;
//  249         }
//  250 
//  251         /* Check if we support the hash the user proposes */
//  252         md_cur = mbedtls_ssl_md_alg_from_hash( p[0] );
//  253         if( md_cur == MBEDTLS_MD_NONE )
//  254         {
//  255             MBEDTLS_SSL_DEBUG_MSG( 3, ( "client hello v3, signature_algorithm ext:"
//  256                                         " unknown hash alg encoding %d", p[0] ) );
//  257             continue;
//  258         }
//  259 
//  260         if( mbedtls_ssl_check_sig_hash( ssl, md_cur ) == 0 )
//  261         {
//  262             mbedtls_ssl_sig_hash_set_add( &ssl->handshake->hash_algs, sig_cur, md_cur );
//  263             MBEDTLS_SSL_DEBUG_MSG( 3, ( "client hello v3, signature_algorithm ext:"
//  264                                         " match sig %d and hash %d",
//  265                                         sig_cur, md_cur ) );
//  266         }
//  267         else
//  268         {
//  269             MBEDTLS_SSL_DEBUG_MSG( 3, ( "client hello v3, signature_algorithm ext: "
//  270                                         "hash alg %d not supported", md_cur ) );
??ssl_parse_signature_algorithms_ext_5:
        STR      R7,[SP, #+4]
        LDR.W    R0,??DataTable14_9
        STR      R0,[SP, #+0]
        MOV      R3,#+270
        LDR.W    R2,??DataTable14_2
        MOVS     R1,#+3
        MOV      R0,R4
          CFI FunCall mbedtls_debug_print_msg
        BL       mbedtls_debug_print_msg
        B.N      ??ssl_parse_signature_algorithms_ext_6
//  271         }
??ssl_parse_signature_algorithms_ext_7:
        MOV      R1,R7
        MOV      R0,R4
          CFI FunCall mbedtls_ssl_check_sig_hash
        BL       mbedtls_ssl_check_sig_hash
        CMP      R0,#+0
        BNE.N    ??ssl_parse_signature_algorithms_ext_5
        MOV      R2,R7
        MOV      R1,R8
        LDR      R0,[R4, #+60]
          CFI FunCall mbedtls_ssl_sig_hash_set_add
        BL       mbedtls_ssl_sig_hash_set_add
        STR      R7,[SP, #+8]
        STR      R8,[SP, #+4]
        LDR.W    R0,??DataTable14_10
        STR      R0,[SP, #+0]
        MOVW     R3,#+265
        LDR.W    R2,??DataTable14_2
        MOVS     R1,#+3
        MOV      R0,R4
          CFI FunCall mbedtls_debug_print_msg
        BL       mbedtls_debug_print_msg
??ssl_parse_signature_algorithms_ext_6:
        ADDS     R6,R6,#+2
??ssl_parse_signature_algorithms_ext_4:
        CMP      R6,R5
        BCS.N    ??ssl_parse_signature_algorithms_ext_8
        LDRB     R0,[R6, #+1]
          CFI FunCall mbedtls_ssl_pk_alg_from_sig
        BL       mbedtls_ssl_pk_alg_from_sig
        MOV      R8,R0
        CMP      R0,#+0
        BNE.N    ??ssl_parse_signature_algorithms_ext_9
        LDRB     R0,[R6, #+1]
        STR      R0,[SP, #+4]
        LDR.W    R0,??DataTable14_11
        STR      R0,[SP, #+0]
        MOVS     R3,#+247
        LDR.W    R2,??DataTable14_2
        MOVS     R1,#+3
        MOV      R0,R4
          CFI FunCall mbedtls_debug_print_msg
        BL       mbedtls_debug_print_msg
        B.N      ??ssl_parse_signature_algorithms_ext_6
??ssl_parse_signature_algorithms_ext_9:
        LDRB     R0,[R6, #+0]
          CFI FunCall mbedtls_ssl_md_alg_from_hash
        BL       mbedtls_ssl_md_alg_from_hash
        MOVS     R7,R0
        BNE.N    ??ssl_parse_signature_algorithms_ext_7
        LDRB     R0,[R6, #+0]
        STR      R0,[SP, #+4]
        LDR.W    R0,??DataTable14_12
        STR      R0,[SP, #+0]
        MOV      R3,#+256
        LDR.W    R2,??DataTable14_2
        MOVS     R1,#+3
        MOV      R0,R4
          CFI FunCall mbedtls_debug_print_msg
        BL       mbedtls_debug_print_msg
        B.N      ??ssl_parse_signature_algorithms_ext_6
//  272     }
//  273 
//  274     return( 0 );
??ssl_parse_signature_algorithms_ext_8:
        MOVS     R0,#+0
??ssl_parse_signature_algorithms_ext_1:
        ADD      SP,SP,#+16
          CFI CFA R13+24
        POP      {R4-R8,PC}       ;; return
//  275 }
          CFI EndBlock cfiBlock16
//  276 #endif /* MBEDTLS_SSL_PROTO_TLS1_2 &&
//  277           MBEDTLS_KEY_EXCHANGE__WITH_CERT__ENABLED */
//  278 
//  279 #if defined(MBEDTLS_ECDH_C) || defined(MBEDTLS_ECDSA_C) || \ 
//  280     defined(MBEDTLS_KEY_EXCHANGE_ECJPAKE_ENABLED)

        SECTION `.text`:CODE:NOROOT(1)
          CFI Block cfiBlock17 Using cfiCommon0
          CFI Function ssl_parse_supported_elliptic_curves
        THUMB
//  281 static int ssl_parse_supported_elliptic_curves( mbedtls_ssl_context *ssl,
//  282                                                 const unsigned char *buf,
//  283                                                 size_t len )
//  284 {
ssl_parse_supported_elliptic_curves:
        PUSH     {R2-R8,LR}
          CFI R14 Frame(CFA, -4)
          CFI R8 Frame(CFA, -8)
          CFI R7 Frame(CFA, -12)
          CFI R6 Frame(CFA, -16)
          CFI R5 Frame(CFA, -20)
          CFI R4 Frame(CFA, -24)
          CFI CFA R13+32
        MOV      R6,R0
        MOV      R7,R1
//  285     size_t list_size, our_size;
//  286     const unsigned char *p;
//  287     const mbedtls_ecp_curve_info *curve_info, **curves;
//  288 
//  289     if ( len < 2 ) {
        CMP      R2,#+2
        BCS.N    ??ssl_parse_supported_elliptic_curves_0
//  290         MBEDTLS_SSL_DEBUG_MSG( 1, ( "bad client hello message" ) );
        LDR.W    R0,??DataTable14_4
        STR      R0,[SP, #+0]
        MOV      R3,#+290
        LDR.W    R2,??DataTable14_2
        MOVS     R1,#+1
        MOV      R0,R6
          CFI FunCall mbedtls_debug_print_msg
        BL       mbedtls_debug_print_msg
//  291         mbedtls_ssl_send_alert_message( ssl, MBEDTLS_SSL_ALERT_LEVEL_FATAL,
//  292                                        MBEDTLS_SSL_ALERT_MSG_DECODE_ERROR );
        MOVS     R2,#+50
        MOVS     R1,#+2
        MOV      R0,R6
          CFI FunCall mbedtls_ssl_send_alert_message
        BL       mbedtls_ssl_send_alert_message
//  293         return( MBEDTLS_ERR_SSL_BAD_HS_CLIENT_HELLO );
        LDR.W    R0,??DataTable14_5  ;; 0xffff8700
        B.N      ??ssl_parse_supported_elliptic_curves_1
//  294     }
//  295     list_size = ( ( buf[0] << 8 ) | ( buf[1] ) );
??ssl_parse_supported_elliptic_curves_0:
        LDRB     R0,[R7, #+0]
        LDRB     R4,[R7, #+1]
        ORR      R4,R4,R0, LSL #+8
//  296     if( list_size + 2 != len ||
//  297         list_size % 2 != 0 )
        ADDS     R0,R4,#+2
        CMP      R0,R2
        BNE.N    ??ssl_parse_supported_elliptic_curves_2
        LSLS     R0,R4,#+31
        BPL.N    ??ssl_parse_supported_elliptic_curves_3
//  298     {
//  299         MBEDTLS_SSL_DEBUG_MSG( 1, ( "bad client hello message" ) );
??ssl_parse_supported_elliptic_curves_2:
        LDR.W    R0,??DataTable14_4
        STR      R0,[SP, #+0]
        MOVW     R3,#+299
        LDR.W    R2,??DataTable14_2
        MOVS     R1,#+1
        MOV      R0,R6
          CFI FunCall mbedtls_debug_print_msg
        BL       mbedtls_debug_print_msg
//  300         mbedtls_ssl_send_alert_message( ssl, MBEDTLS_SSL_ALERT_LEVEL_FATAL,
//  301                                         MBEDTLS_SSL_ALERT_MSG_DECODE_ERROR );
        MOVS     R2,#+50
        MOVS     R1,#+2
        MOV      R0,R6
          CFI FunCall mbedtls_ssl_send_alert_message
        BL       mbedtls_ssl_send_alert_message
//  302         return( MBEDTLS_ERR_SSL_BAD_HS_CLIENT_HELLO );
        LDR.W    R0,??DataTable14_5  ;; 0xffff8700
        B.N      ??ssl_parse_supported_elliptic_curves_1
//  303     }
//  304 
//  305     /* Should never happen unless client duplicates the extension */
//  306     if( ssl->handshake->curves != NULL )
??ssl_parse_supported_elliptic_curves_3:
        LDR      R0,[R6, #+60]
        LDR      R0,[R0, #+436]
        CMP      R0,#+0
        BEQ.N    ??ssl_parse_supported_elliptic_curves_4
//  307     {
//  308         MBEDTLS_SSL_DEBUG_MSG( 1, ( "bad client hello message" ) );
        LDR.W    R0,??DataTable14_4
        STR      R0,[SP, #+0]
        MOV      R3,#+308
        LDR.W    R2,??DataTable14_2
        MOVS     R1,#+1
        MOV      R0,R6
          CFI FunCall mbedtls_debug_print_msg
        BL       mbedtls_debug_print_msg
//  309         mbedtls_ssl_send_alert_message( ssl, MBEDTLS_SSL_ALERT_LEVEL_FATAL,
//  310                                         MBEDTLS_SSL_ALERT_MSG_DECODE_ERROR );
        MOVS     R2,#+50
        MOVS     R1,#+2
        MOV      R0,R6
          CFI FunCall mbedtls_ssl_send_alert_message
        BL       mbedtls_ssl_send_alert_message
//  311         return( MBEDTLS_ERR_SSL_BAD_HS_CLIENT_HELLO );
        LDR.W    R0,??DataTable14_5  ;; 0xffff8700
        B.N      ??ssl_parse_supported_elliptic_curves_1
//  312     }
//  313 
//  314     /* Don't allow our peer to make us allocate too much memory,
//  315      * and leave room for a final 0 */
//  316     our_size = list_size / 2 + 1;
??ssl_parse_supported_elliptic_curves_4:
        MOV      R8,R4
        LSR      R8,R8,#+1
        ADD      R8,R8,#+1
//  317     if( our_size > MBEDTLS_ECP_DP_MAX )
        CMP      R8,#+13
        BCC.N    ??ssl_parse_supported_elliptic_curves_5
//  318         our_size = MBEDTLS_ECP_DP_MAX;
        MOV      R8,#+12
//  319 
//  320     if( ( curves = mbedtls_calloc( our_size, sizeof( *curves ) ) ) == NULL )
??ssl_parse_supported_elliptic_curves_5:
        MOVS     R1,#+4
        MOV      R0,R8
          CFI FunCall mbedtls_calloc
        BL       mbedtls_calloc
        MOVS     R5,R0
        BNE.N    ??ssl_parse_supported_elliptic_curves_6
//  321     {
//  322         mbedtls_ssl_send_alert_message( ssl, MBEDTLS_SSL_ALERT_LEVEL_FATAL,
//  323                                         MBEDTLS_SSL_ALERT_MSG_INTERNAL_ERROR );
        MOVS     R2,#+80
        MOVS     R1,#+2
        MOV      R0,R6
          CFI FunCall mbedtls_ssl_send_alert_message
        BL       mbedtls_ssl_send_alert_message
//  324         return( MBEDTLS_ERR_SSL_ALLOC_FAILED );
        LDR.W    R0,??DataTable14_1  ;; 0xffff8100
        B.N      ??ssl_parse_supported_elliptic_curves_1
//  325     }
//  326 
//  327     ssl->handshake->curves = curves;
??ssl_parse_supported_elliptic_curves_6:
        LDR      R0,[R6, #+60]
        STR      R5,[R0, #+436]
//  328 
//  329     p = buf + 2;
        ADDS     R6,R7,#+2
//  330     while( list_size > 0 && our_size > 1 )
??ssl_parse_supported_elliptic_curves_7:
        CMP      R4,#+0
        BEQ.N    ??ssl_parse_supported_elliptic_curves_8
        CMP      R8,#+2
        BCC.N    ??ssl_parse_supported_elliptic_curves_8
//  331     {
//  332         curve_info = mbedtls_ecp_curve_info_from_tls_id( ( p[0] << 8 ) | p[1] );
        LDRB     R1,[R6, #+0]
        LDRB     R0,[R6, #+1]
        ORR      R0,R0,R1, LSL #+8
          CFI FunCall mbedtls_ecp_curve_info_from_tls_id
        BL       mbedtls_ecp_curve_info_from_tls_id
//  333 
//  334         if( curve_info != NULL )
        CMP      R0,#+0
        BEQ.N    ??ssl_parse_supported_elliptic_curves_9
//  335         {
//  336             *curves++ = curve_info;
        STR      R0,[R5], #+4
//  337             our_size--;
        SUB      R8,R8,#+1
//  338         }
//  339 
//  340         list_size -= 2;
??ssl_parse_supported_elliptic_curves_9:
        SUBS     R4,R4,#+2
//  341         p += 2;
        ADDS     R6,R6,#+2
        B.N      ??ssl_parse_supported_elliptic_curves_7
//  342     }
//  343 
//  344     return( 0 );
??ssl_parse_supported_elliptic_curves_8:
        MOVS     R0,#+0
??ssl_parse_supported_elliptic_curves_1:
        POP      {R1,R2,R4-R8,PC}  ;; return
//  345 }
          CFI EndBlock cfiBlock17
//  346 

        SECTION `.text`:CODE:NOROOT(1)
          CFI Block cfiBlock18 Using cfiCommon0
          CFI Function ssl_parse_supported_point_formats
        THUMB
//  347 static int ssl_parse_supported_point_formats( mbedtls_ssl_context *ssl,
//  348                                               const unsigned char *buf,
//  349                                               size_t len )
//  350 {
ssl_parse_supported_point_formats:
        PUSH     {R2-R4,LR}
          CFI R14 Frame(CFA, -4)
          CFI R4 Frame(CFA, -8)
          CFI CFA R13+16
        MOV      R4,R0
        MOV      R0,R1
//  351     size_t list_size;
//  352     const unsigned char *p;
//  353 
//  354     if( len == 0 || (size_t)( buf[0] + 1 ) != len )
        CMP      R2,#+0
        BEQ.N    ??ssl_parse_supported_point_formats_0
        LDRB     R1,[R0, #+0]
        ADDS     R1,R1,#+1
        CMP      R1,R2
        BEQ.N    ??ssl_parse_supported_point_formats_1
//  355     {
//  356         MBEDTLS_SSL_DEBUG_MSG( 1, ( "bad client hello message" ) );
??ssl_parse_supported_point_formats_0:
        LDR.W    R0,??DataTable14_4
        STR      R0,[SP, #+0]
        MOV      R3,#+356
        LDR.W    R2,??DataTable14_2
        MOVS     R1,#+1
        MOV      R0,R4
          CFI FunCall mbedtls_debug_print_msg
        BL       mbedtls_debug_print_msg
//  357         mbedtls_ssl_send_alert_message( ssl, MBEDTLS_SSL_ALERT_LEVEL_FATAL,
//  358                                         MBEDTLS_SSL_ALERT_MSG_DECODE_ERROR );
        MOVS     R2,#+50
        MOVS     R1,#+2
        MOV      R0,R4
          CFI FunCall mbedtls_ssl_send_alert_message
        BL       mbedtls_ssl_send_alert_message
//  359         return( MBEDTLS_ERR_SSL_BAD_HS_CLIENT_HELLO );
        LDR.W    R0,??DataTable14_5  ;; 0xffff8700
        POP      {R1,R2,R4,PC}
//  360     }
//  361     list_size = buf[0];
??ssl_parse_supported_point_formats_1:
        LDRB     R1,[R0, #+0]
//  362 
//  363     p = buf + 1;
        ADDS     R2,R0,#+1
//  364     while( list_size > 0 )
??ssl_parse_supported_point_formats_2:
        CMP      R1,#+0
        BEQ.N    ??ssl_parse_supported_point_formats_3
//  365     {
//  366         if( p[0] == MBEDTLS_ECP_PF_UNCOMPRESSED ||
//  367             p[0] == MBEDTLS_ECP_PF_COMPRESSED )
        LDRB     R0,[R2, #+0]
        CMP      R0,#+0
        BEQ.N    ??ssl_parse_supported_point_formats_4
        CMP      R0,#+1
        BEQ.N    ??ssl_parse_supported_point_formats_4
//  368         {
//  369 #if defined(MBEDTLS_ECDH_C) || defined(MBEDTLS_ECDSA_C)
//  370             ssl->handshake->ecdh_ctx.point_format = p[0];
//  371 #endif
//  372 #if defined(MBEDTLS_KEY_EXCHANGE_ECJPAKE_ENABLED)
//  373             ssl->handshake->ecjpake_ctx.point_format = p[0];
//  374 #endif
//  375             MBEDTLS_SSL_DEBUG_MSG( 4, ( "point format selected: %d", p[0] ) );
//  376             return( 0 );
//  377         }
//  378 
//  379         list_size--;
        SUBS     R1,R1,#+1
//  380         p++;
        ADDS     R2,R2,#+1
        B.N      ??ssl_parse_supported_point_formats_2
//  381     }
//  382 
//  383     return( 0 );
??ssl_parse_supported_point_formats_3:
        MOVS     R0,#+0
        POP      {R1,R2,R4,PC}    ;; return
??ssl_parse_supported_point_formats_4:
        LDR      R1,[R4, #+60]
        STR      R0,[R1, #+348]
        LDRB     R0,[R2, #+0]
        STR      R0,[SP, #+4]
        LDR.W    R0,??DataTable14_13
        STR      R0,[SP, #+0]
        MOVW     R3,#+375
        LDR.W    R2,??DataTable14_2
        MOVS     R1,#+4
        MOV      R0,R4
          CFI FunCall mbedtls_debug_print_msg
        BL       mbedtls_debug_print_msg
        MOVS     R0,#+0
        POP      {R1,R2,R4,PC}
//  384 }
          CFI EndBlock cfiBlock18
//  385 #endif /* MBEDTLS_ECDH_C || MBEDTLS_ECDSA_C ||
//  386           MBEDTLS_KEY_EXCHANGE_ECJPAKE_ENABLED */
//  387 
//  388 #if defined(MBEDTLS_KEY_EXCHANGE_ECJPAKE_ENABLED)
//  389 static int ssl_parse_ecjpake_kkpp( mbedtls_ssl_context *ssl,
//  390                                    const unsigned char *buf,
//  391                                    size_t len )
//  392 {
//  393     int ret;
//  394 
//  395     if( mbedtls_ecjpake_check( &ssl->handshake->ecjpake_ctx ) != 0 )
//  396     {
//  397         MBEDTLS_SSL_DEBUG_MSG( 3, ( "skip ecjpake kkpp extension" ) );
//  398         return( 0 );
//  399     }
//  400 
//  401     if( ( ret = mbedtls_ecjpake_read_round_one( &ssl->handshake->ecjpake_ctx,
//  402                                                 buf, len ) ) != 0 )
//  403     {
//  404         MBEDTLS_SSL_DEBUG_RET( 1, "mbedtls_ecjpake_read_round_one", ret );
//  405         mbedtls_ssl_send_alert_message( ssl, MBEDTLS_SSL_ALERT_LEVEL_FATAL,
//  406                                         MBEDTLS_SSL_ALERT_MSG_ILLEGAL_PARAMETER );
//  407         return( ret );
//  408     }
//  409 
//  410     /* Only mark the extension as OK when we're sure it is */
//  411     ssl->handshake->cli_exts |= MBEDTLS_TLS_EXT_ECJPAKE_KKPP_OK;
//  412 
//  413     return( 0 );
//  414 }
//  415 #endif /* MBEDTLS_KEY_EXCHANGE_ECJPAKE_ENABLED */
//  416 
//  417 #if defined(MBEDTLS_SSL_MAX_FRAGMENT_LENGTH)

        SECTION `.text`:CODE:NOROOT(1)
          CFI Block cfiBlock19 Using cfiCommon0
          CFI Function ssl_parse_max_fragment_length_ext
        THUMB
//  418 static int ssl_parse_max_fragment_length_ext( mbedtls_ssl_context *ssl,
//  419                                               const unsigned char *buf,
//  420                                               size_t len )
//  421 {
ssl_parse_max_fragment_length_ext:
        PUSH     {R2-R4,LR}
          CFI R14 Frame(CFA, -4)
          CFI R4 Frame(CFA, -8)
          CFI CFA R13+16
        MOV      R4,R0
//  422     if( len != 1 || buf[0] >= MBEDTLS_SSL_MAX_FRAG_LEN_INVALID )
        CMP      R2,#+1
        BNE.N    ??ssl_parse_max_fragment_length_ext_0
        LDRB     R0,[R1, #+0]
        CMP      R0,#+5
        BLT.N    ??ssl_parse_max_fragment_length_ext_1
//  423     {
//  424         MBEDTLS_SSL_DEBUG_MSG( 1, ( "bad client hello message" ) );
??ssl_parse_max_fragment_length_ext_0:
        LDR.W    R0,??DataTable14_4
        STR      R0,[SP, #+0]
        MOV      R3,#+424
        LDR.W    R2,??DataTable14_2
        MOVS     R1,#+1
        MOV      R0,R4
          CFI FunCall mbedtls_debug_print_msg
        BL       mbedtls_debug_print_msg
//  425         mbedtls_ssl_send_alert_message( ssl, MBEDTLS_SSL_ALERT_LEVEL_FATAL,
//  426                                         MBEDTLS_SSL_ALERT_MSG_ILLEGAL_PARAMETER );
        MOVS     R2,#+47
        MOVS     R1,#+2
        MOV      R0,R4
          CFI FunCall mbedtls_ssl_send_alert_message
        BL       mbedtls_ssl_send_alert_message
//  427         return( MBEDTLS_ERR_SSL_BAD_HS_CLIENT_HELLO );
        LDR.W    R0,??DataTable14_5  ;; 0xffff8700
        POP      {R1,R2,R4,PC}
//  428     }
//  429 
//  430     ssl->session_negotiate->mfl_code = buf[0];
??ssl_parse_max_fragment_length_ext_1:
        LDR      R1,[R4, #+56]
        STRB     R0,[R1, #+112]
//  431 
//  432     return( 0 );
        MOVS     R0,#+0
        POP      {R1,R2,R4,PC}    ;; return
//  433 }
          CFI EndBlock cfiBlock19
//  434 #endif /* MBEDTLS_SSL_MAX_FRAGMENT_LENGTH */
//  435 
//  436 #if defined(MBEDTLS_SSL_TRUNCATED_HMAC)

        SECTION `.text`:CODE:NOROOT(1)
          CFI Block cfiBlock20 Using cfiCommon0
          CFI Function ssl_parse_truncated_hmac_ext
        THUMB
//  437 static int ssl_parse_truncated_hmac_ext( mbedtls_ssl_context *ssl,
//  438                                          const unsigned char *buf,
//  439                                          size_t len )
//  440 {
ssl_parse_truncated_hmac_ext:
        PUSH     {R2-R4,LR}
          CFI R14 Frame(CFA, -4)
          CFI R4 Frame(CFA, -8)
          CFI CFA R13+16
        MOV      R4,R0
//  441     if( len != 0 )
        CMP      R2,#+0
        BEQ.N    ??ssl_parse_truncated_hmac_ext_0
//  442     {
//  443         MBEDTLS_SSL_DEBUG_MSG( 1, ( "bad client hello message" ) );
        LDR.W    R0,??DataTable14_4
        STR      R0,[SP, #+0]
        MOVW     R3,#+443
        LDR.W    R2,??DataTable14_2
        MOVS     R1,#+1
        MOV      R0,R4
          CFI FunCall mbedtls_debug_print_msg
        BL       mbedtls_debug_print_msg
//  444         mbedtls_ssl_send_alert_message( ssl, MBEDTLS_SSL_ALERT_LEVEL_FATAL,
//  445                                         MBEDTLS_SSL_ALERT_MSG_DECODE_ERROR );
        MOVS     R2,#+50
        MOVS     R1,#+2
        MOV      R0,R4
          CFI FunCall mbedtls_ssl_send_alert_message
        BL       mbedtls_ssl_send_alert_message
//  446         return( MBEDTLS_ERR_SSL_BAD_HS_CLIENT_HELLO );
        LDR.W    R0,??DataTable14_5  ;; 0xffff8700
        POP      {R1,R2,R4,PC}
//  447     }
//  448 
//  449     ((void) buf);
//  450 
//  451     if( ssl->conf->trunc_hmac == MBEDTLS_SSL_TRUNC_HMAC_ENABLED )
??ssl_parse_truncated_hmac_ext_0:
        LDR      R0,[R4, #+0]
        LDR      R0,[R0, #+204]
        UBFX     R0,R0,#+14,#+1
        CMP      R0,#+0
        BEQ.N    ??ssl_parse_truncated_hmac_ext_1
//  452         ssl->session_negotiate->trunc_hmac = MBEDTLS_SSL_TRUNC_HMAC_ENABLED;
        MOVS     R0,#+1
        LDR      R1,[R4, #+56]
        STR      R0,[R1, #+116]
//  453 
//  454     return( 0 );
??ssl_parse_truncated_hmac_ext_1:
        MOVS     R0,#+0
        POP      {R1,R2,R4,PC}    ;; return
//  455 }
          CFI EndBlock cfiBlock20
//  456 #endif /* MBEDTLS_SSL_TRUNCATED_HMAC */
//  457 
//  458 #if defined(MBEDTLS_SSL_ENCRYPT_THEN_MAC)

        SECTION `.text`:CODE:NOROOT(1)
          CFI Block cfiBlock21 Using cfiCommon0
          CFI Function ssl_parse_encrypt_then_mac_ext
        THUMB
//  459 static int ssl_parse_encrypt_then_mac_ext( mbedtls_ssl_context *ssl,
//  460                                       const unsigned char *buf,
//  461                                       size_t len )
//  462 {
ssl_parse_encrypt_then_mac_ext:
        PUSH     {R2-R4,LR}
          CFI R14 Frame(CFA, -4)
          CFI R4 Frame(CFA, -8)
          CFI CFA R13+16
        MOV      R4,R0
//  463     if( len != 0 )
        CMP      R2,#+0
        BEQ.N    ??ssl_parse_encrypt_then_mac_ext_0
//  464     {
//  465         MBEDTLS_SSL_DEBUG_MSG( 1, ( "bad client hello message" ) );
        LDR.W    R0,??DataTable14_4
        STR      R0,[SP, #+0]
        MOVW     R3,#+465
        LDR.W    R2,??DataTable14_2
        MOVS     R1,#+1
        MOV      R0,R4
          CFI FunCall mbedtls_debug_print_msg
        BL       mbedtls_debug_print_msg
//  466         mbedtls_ssl_send_alert_message( ssl, MBEDTLS_SSL_ALERT_LEVEL_FATAL,
//  467                                         MBEDTLS_SSL_ALERT_MSG_DECODE_ERROR );
        MOVS     R2,#+50
        MOVS     R1,#+2
        MOV      R0,R4
          CFI FunCall mbedtls_ssl_send_alert_message
        BL       mbedtls_ssl_send_alert_message
//  468         return( MBEDTLS_ERR_SSL_BAD_HS_CLIENT_HELLO );
        LDR.W    R0,??DataTable14_5  ;; 0xffff8700
        POP      {R1,R2,R4,PC}
//  469     }
//  470 
//  471     ((void) buf);
//  472 
//  473     if( ssl->conf->encrypt_then_mac == MBEDTLS_SSL_ETM_ENABLED &&
//  474         ssl->minor_ver != MBEDTLS_SSL_MINOR_VERSION_0 )
??ssl_parse_encrypt_then_mac_ext_0:
        LDR      R0,[R4, #+0]
        LDR      R0,[R0, #+204]
        UBFX     R0,R0,#+9,#+1
        CMP      R0,#+0
        BEQ.N    ??ssl_parse_encrypt_then_mac_ext_1
        LDR      R0,[R4, #+20]
        CMP      R0,#+0
        BEQ.N    ??ssl_parse_encrypt_then_mac_ext_1
//  475     {
//  476         ssl->session_negotiate->encrypt_then_mac = MBEDTLS_SSL_ETM_ENABLED;
        MOVS     R0,#+1
        LDR      R1,[R4, #+56]
        STR      R0,[R1, #+120]
//  477     }
//  478 
//  479     return( 0 );
??ssl_parse_encrypt_then_mac_ext_1:
        MOVS     R0,#+0
        POP      {R1,R2,R4,PC}    ;; return
//  480 }
          CFI EndBlock cfiBlock21
//  481 #endif /* MBEDTLS_SSL_ENCRYPT_THEN_MAC */
//  482 
//  483 #if defined(MBEDTLS_SSL_EXTENDED_MASTER_SECRET)

        SECTION `.text`:CODE:NOROOT(1)
          CFI Block cfiBlock22 Using cfiCommon0
          CFI Function ssl_parse_extended_ms_ext
        THUMB
//  484 static int ssl_parse_extended_ms_ext( mbedtls_ssl_context *ssl,
//  485                                       const unsigned char *buf,
//  486                                       size_t len )
//  487 {
ssl_parse_extended_ms_ext:
        PUSH     {R2-R4,LR}
          CFI R14 Frame(CFA, -4)
          CFI R4 Frame(CFA, -8)
          CFI CFA R13+16
        MOV      R4,R0
//  488     if( len != 0 )
        CMP      R2,#+0
        BEQ.N    ??ssl_parse_extended_ms_ext_0
//  489     {
//  490         MBEDTLS_SSL_DEBUG_MSG( 1, ( "bad client hello message" ) );
        LDR.W    R0,??DataTable14_4
        STR      R0,[SP, #+0]
        MOV      R3,#+490
        LDR.W    R2,??DataTable14_2
        MOVS     R1,#+1
        MOV      R0,R4
          CFI FunCall mbedtls_debug_print_msg
        BL       mbedtls_debug_print_msg
//  491         mbedtls_ssl_send_alert_message( ssl, MBEDTLS_SSL_ALERT_LEVEL_FATAL,
//  492                                         MBEDTLS_SSL_ALERT_MSG_DECODE_ERROR );
        MOVS     R2,#+50
        MOVS     R1,#+2
        MOV      R0,R4
          CFI FunCall mbedtls_ssl_send_alert_message
        BL       mbedtls_ssl_send_alert_message
//  493         return( MBEDTLS_ERR_SSL_BAD_HS_CLIENT_HELLO );
        LDR.W    R0,??DataTable14_5  ;; 0xffff8700
        POP      {R1,R2,R4,PC}
//  494     }
//  495 
//  496     ((void) buf);
//  497 
//  498     if( ssl->conf->extended_ms == MBEDTLS_SSL_EXTENDED_MS_ENABLED &&
//  499         ssl->minor_ver != MBEDTLS_SSL_MINOR_VERSION_0 )
??ssl_parse_extended_ms_ext_0:
        LDR      R0,[R4, #+0]
        LDR      R0,[R0, #+204]
        UBFX     R0,R0,#+10,#+1
        CMP      R0,#+0
        BEQ.N    ??ssl_parse_extended_ms_ext_1
        LDR      R0,[R4, #+20]
        CMP      R0,#+0
        BEQ.N    ??ssl_parse_extended_ms_ext_1
//  500     {
//  501         ssl->handshake->extended_ms = MBEDTLS_SSL_EXTENDED_MS_ENABLED;
        MOVS     R0,#+1
        LDR      R1,[R4, #+60]
        STR      R0,[R1, #+1748]
//  502     }
//  503 
//  504     return( 0 );
??ssl_parse_extended_ms_ext_1:
        MOVS     R0,#+0
        POP      {R1,R2,R4,PC}    ;; return
//  505 }
          CFI EndBlock cfiBlock22
//  506 #endif /* MBEDTLS_SSL_EXTENDED_MASTER_SECRET */
//  507 
//  508 #if defined(MBEDTLS_SSL_SESSION_TICKETS)

        SECTION `.text`:CODE:NOROOT(1)
          CFI Block cfiBlock23 Using cfiCommon0
          CFI Function ssl_parse_session_ticket_ext
        THUMB
//  509 static int ssl_parse_session_ticket_ext( mbedtls_ssl_context *ssl,
//  510                                          unsigned char *buf,
//  511                                          size_t len )
//  512 {
ssl_parse_session_ticket_ext:
        PUSH     {R4-R7,LR}
          CFI R14 Frame(CFA, -4)
          CFI R7 Frame(CFA, -8)
          CFI R6 Frame(CFA, -12)
          CFI R5 Frame(CFA, -16)
          CFI R4 Frame(CFA, -20)
          CFI CFA R13+20
        SUB      SP,SP,#+132
          CFI CFA R13+152
        MOV      R5,R0
        MOV      R6,R1
        MOV      R4,R2
//  513     int ret;
//  514     mbedtls_ssl_session session;
//  515 
//  516     mbedtls_ssl_session_init( &session );
        ADD      R0,SP,#+8
          CFI FunCall mbedtls_ssl_session_init
        BL       mbedtls_ssl_session_init
//  517 
//  518     if( ssl->conf->f_ticket_parse == NULL ||
//  519         ssl->conf->f_ticket_write == NULL )
        LDR      R0,[R5, #+0]
        LDR      R0,[R0, #+84]
        CMP      R0,#+0
        BEQ.N    ??ssl_parse_session_ticket_ext_0
        LDR      R0,[R5, #+0]
        LDR      R0,[R0, #+80]
        CMP      R0,#+0
        BEQ.N    ??ssl_parse_session_ticket_ext_0
//  520     {
//  521         return( 0 );
//  522     }
//  523 
//  524     /* Remember the client asked us to send a new ticket */
//  525     ssl->handshake->new_session_ticket = 1;
        MOVS     R0,#+1
        LDR      R1,[R5, #+60]
        STR      R0,[R1, #+1744]
//  526 
//  527     MBEDTLS_SSL_DEBUG_MSG( 3, ( "ticket length: %d", len ) );
        LDR.W    R7,??DataTable14_2
        STR      R4,[SP, #+4]
        LDR.W    R0,??DataTable14_14
        STR      R0,[SP, #+0]
        MOVW     R3,#+527
        MOV      R2,R7
        MOVS     R1,#+3
        MOV      R0,R5
          CFI FunCall mbedtls_debug_print_msg
        BL       mbedtls_debug_print_msg
//  528 
//  529     if( len == 0 )
        CMP      R4,#+0
        BEQ.N    ??ssl_parse_session_ticket_ext_0
//  530         return( 0 );
//  531 
//  532 #if defined(MBEDTLS_SSL_RENEGOTIATION)
//  533     if( ssl->renego_status != MBEDTLS_SSL_INITIAL_HANDSHAKE )
        LDR      R0,[R5, #+8]
        CMP      R0,#+0
        BEQ.N    ??ssl_parse_session_ticket_ext_1
//  534     {
//  535         MBEDTLS_SSL_DEBUG_MSG( 3, ( "ticket rejected: renegotiating" ) );
        LDR.W    R0,??DataTable14_15
        STR      R0,[SP, #+0]
        MOVW     R3,#+535
        MOV      R2,R7
        MOVS     R1,#+3
        MOV      R0,R5
          CFI FunCall mbedtls_debug_print_msg
        BL       mbedtls_debug_print_msg
//  536         return( 0 );
        MOVS     R0,#+0
        B.N      ??ssl_parse_session_ticket_ext_2
//  537     }
//  538 #endif /* MBEDTLS_SSL_RENEGOTIATION */
//  539 
//  540     /*
//  541      * Failures are ok: just ignore the ticket and proceed.
//  542      */
//  543     if( ( ret = ssl->conf->f_ticket_parse( ssl->conf->p_ticket, &session,
//  544                                            buf, len ) ) != 0 )
??ssl_parse_session_ticket_ext_1:
        MOV      R3,R4
        MOV      R2,R6
        ADD      R1,SP,#+8
        LDR      R0,[R5, #+0]
        LDR      R0,[R0, #+88]
        LDR      R4,[R5, #+0]
        LDR      R4,[R4, #+84]
          CFI FunCall
        BLX      R4
        MOVS     R4,R0
        BEQ.N    ??ssl_parse_session_ticket_ext_3
//  545     {
//  546         mbedtls_ssl_session_free( &session );
        ADD      R0,SP,#+8
          CFI FunCall mbedtls_ssl_session_free
        BL       mbedtls_ssl_session_free
//  547 
//  548         if( ret == MBEDTLS_ERR_SSL_INVALID_MAC )
        CMN      R4,#+29056
        BNE.N    ??ssl_parse_session_ticket_ext_4
//  549             MBEDTLS_SSL_DEBUG_MSG( 3, ( "ticket is not authentic" ) );
        LDR.W    R0,??DataTable14_16
        STR      R0,[SP, #+0]
        MOVW     R3,#+549
        MOV      R2,R7
        MOVS     R1,#+3
        MOV      R0,R5
          CFI FunCall mbedtls_debug_print_msg
        BL       mbedtls_debug_print_msg
        B.N      ??ssl_parse_session_ticket_ext_0
//  550         else if( ret == MBEDTLS_ERR_SSL_SESSION_TICKET_EXPIRED )
??ssl_parse_session_ticket_ext_4:
        CMN      R4,#+28032
        BNE.N    ??ssl_parse_session_ticket_ext_5
//  551             MBEDTLS_SSL_DEBUG_MSG( 3, ( "ticket is expired" ) );
        LDR.W    R0,??DataTable14_17
        STR      R0,[SP, #+0]
        MOVW     R3,#+551
        MOV      R2,R7
        MOVS     R1,#+3
        MOV      R0,R5
          CFI FunCall mbedtls_debug_print_msg
        BL       mbedtls_debug_print_msg
        B.N      ??ssl_parse_session_ticket_ext_0
//  552         else
//  553             MBEDTLS_SSL_DEBUG_RET( 1, "mbedtls_ssl_ticket_parse", ret );
??ssl_parse_session_ticket_ext_5:
        STR      R4,[SP, #+4]
        LDR.W    R0,??DataTable14_18
        STR      R0,[SP, #+0]
        MOVW     R3,#+553
        MOV      R2,R7
        MOVS     R1,#+1
        MOV      R0,R5
          CFI FunCall mbedtls_debug_print_ret
        BL       mbedtls_debug_print_ret
//  554 
//  555         return( 0 );
??ssl_parse_session_ticket_ext_0:
        MOVS     R0,#+0
        B.N      ??ssl_parse_session_ticket_ext_2
//  556     }
//  557 
//  558     /*
//  559      * Keep the session ID sent by the client, since we MUST send it back to
//  560      * inform them we're accepting the ticket  (RFC 5077 section 3.4)
//  561      */
//  562     session.id_len = ssl->session_negotiate->id_len;
??ssl_parse_session_ticket_ext_3:
        LDR      R0,[R5, #+56]
        LDR      R0,[R0, #+8]
        STR      R0,[SP, #+16]
//  563     memcpy( &session.id, ssl->session_negotiate->id, session.id_len );
        MOV      R2,R0
        LDR      R0,[R5, #+56]
        ADD      R1,R0,#+12
        ADD      R0,SP,#+20
          CFI FunCall __aeabi_memcpy4
        BL       __aeabi_memcpy4
//  564 
//  565     mbedtls_ssl_session_free( ssl->session_negotiate );
        LDR      R0,[R5, #+56]
          CFI FunCall mbedtls_ssl_session_free
        BL       mbedtls_ssl_session_free
//  566     memcpy( ssl->session_negotiate, &session, sizeof( mbedtls_ssl_session ) );
        MOVS     R2,#+124
        ADD      R1,SP,#+8
        LDR      R0,[R5, #+56]
          CFI FunCall __aeabi_memcpy4
        BL       __aeabi_memcpy4
//  567 
//  568     /* Zeroize instead of free as we copied the content */
//  569     mbedtls_platform_zeroize( &session, sizeof( mbedtls_ssl_session ) );
        MOVS     R1,#+124
        ADD      R0,SP,#+8
          CFI FunCall mbedtls_platform_zeroize
        BL       mbedtls_platform_zeroize
//  570 
//  571     MBEDTLS_SSL_DEBUG_MSG( 3, ( "session successfully restored from ticket" ) );
        LDR.W    R0,??DataTable14_19
        STR      R0,[SP, #+0]
        MOVW     R3,#+571
        MOV      R2,R7
        MOVS     R1,#+3
        MOV      R0,R5
          CFI FunCall mbedtls_debug_print_msg
        BL       mbedtls_debug_print_msg
//  572 
//  573     ssl->handshake->resume = 1;
        MOVS     R0,#+1
        LDR      R1,[R5, #+60]
        STR      R0,[R1, #+1728]
//  574 
//  575     /* Don't send a new ticket after all, this one is OK */
//  576     ssl->handshake->new_session_ticket = 0;
        MOVS     R0,#+0
        LDR      R1,[R5, #+60]
        STR      R0,[R1, #+1744]
//  577 
//  578     return( 0 );
??ssl_parse_session_ticket_ext_2:
        ADD      SP,SP,#+132
          CFI CFA R13+20
        POP      {R4-R7,PC}       ;; return
//  579 }
          CFI EndBlock cfiBlock23
//  580 #endif /* MBEDTLS_SSL_SESSION_TICKETS */
//  581 
//  582 #if defined(MBEDTLS_SSL_ALPN)

        SECTION `.text`:CODE:NOROOT(1)
          CFI Block cfiBlock24 Using cfiCommon0
          CFI Function ssl_parse_alpn_ext
        THUMB
//  583 static int ssl_parse_alpn_ext( mbedtls_ssl_context *ssl,
//  584                                const unsigned char *buf, size_t len )
//  585 {
ssl_parse_alpn_ext:
        PUSH     {R4-R10,LR}
          CFI R14 Frame(CFA, -4)
          CFI R10 Frame(CFA, -8)
          CFI R9 Frame(CFA, -12)
          CFI R8 Frame(CFA, -16)
          CFI R7 Frame(CFA, -20)
          CFI R6 Frame(CFA, -24)
          CFI R5 Frame(CFA, -28)
          CFI R4 Frame(CFA, -32)
          CFI CFA R13+32
        MOV      R4,R0
//  586     size_t list_len, cur_len, ours_len;
//  587     const unsigned char *theirs, *start, *end;
//  588     const char **ours;
//  589 
//  590     /* If ALPN not configured, just ignore the extension */
//  591     if( ssl->conf->alpn_list == NULL )
        LDR      R0,[R4, #+0]
        LDR      R0,[R0, #+164]
        CMP      R0,#+0
        BNE.N    ??ssl_parse_alpn_ext_0
//  592         return( 0 );
        MOVS     R0,#+0
        B.N      ??ssl_parse_alpn_ext_1
//  593 
//  594     /*
//  595      * opaque ProtocolName<1..2^8-1>;
//  596      *
//  597      * struct {
//  598      *     ProtocolName protocol_name_list<2..2^16-1>
//  599      * } ProtocolNameList;
//  600      */
//  601 
//  602     /* Min length is 2 (list_len) + 1 (name_len) + 1 (name) */
//  603     if( len < 4 )
??ssl_parse_alpn_ext_0:
        CMP      R2,#+4
        BCC.N    ??ssl_parse_alpn_ext_2
//  604     {
//  605         mbedtls_ssl_send_alert_message( ssl, MBEDTLS_SSL_ALERT_LEVEL_FATAL,
//  606                                         MBEDTLS_SSL_ALERT_MSG_DECODE_ERROR );
//  607         return( MBEDTLS_ERR_SSL_BAD_HS_CLIENT_HELLO );
//  608     }
//  609 
//  610     list_len = ( buf[0] << 8 ) | buf[1];
//  611     if( list_len != len - 2 )
        LDRB     R0,[R1, #+0]
        LDRB     R3,[R1, #+1]
        ORR      R3,R3,R0, LSL #+8
        SUBS     R0,R2,#+2
        CMP      R3,R0
        BNE.N    ??ssl_parse_alpn_ext_2
//  612     {
//  613         mbedtls_ssl_send_alert_message( ssl, MBEDTLS_SSL_ALERT_LEVEL_FATAL,
//  614                                         MBEDTLS_SSL_ALERT_MSG_DECODE_ERROR );
//  615         return( MBEDTLS_ERR_SSL_BAD_HS_CLIENT_HELLO );
//  616     }
//  617 
//  618     /*
//  619      * Validate peer's list (lengths)
//  620      */
//  621     start = buf + 2;
        ADDS     R5,R1,#+2
//  622     end = buf + len;
        ADDS     R6,R1,R2
//  623     for( theirs = start; theirs != end; theirs += cur_len )
        MOV      R1,R5
        B.N      ??ssl_parse_alpn_ext_3
//  624     {
//  625         cur_len = *theirs++;
//  626 
//  627         /* Current identifier must fit in list */
//  628         if( cur_len > (size_t)( end - theirs ) )
//  629         {
//  630             mbedtls_ssl_send_alert_message( ssl, MBEDTLS_SSL_ALERT_LEVEL_FATAL,
//  631                                             MBEDTLS_SSL_ALERT_MSG_DECODE_ERROR );
//  632             return( MBEDTLS_ERR_SSL_BAD_HS_CLIENT_HELLO );
//  633         }
//  634 
//  635         /* Empty strings MUST NOT be included */
//  636         if( cur_len == 0 )
??ssl_parse_alpn_ext_4:
        CMP      R0,#+0
        BEQ.N    ??ssl_parse_alpn_ext_5
        ADD      R1,R1,R0
??ssl_parse_alpn_ext_3:
        CMP      R1,R6
        BEQ.N    ??ssl_parse_alpn_ext_6
        LDRB     R0,[R1], #+1
        SUBS     R2,R6,R1
        CMP      R2,R0
        BCS.N    ??ssl_parse_alpn_ext_4
??ssl_parse_alpn_ext_2:
        MOVS     R2,#+50
        MOVS     R1,#+2
        MOV      R0,R4
          CFI FunCall mbedtls_ssl_send_alert_message
        BL       mbedtls_ssl_send_alert_message
        LDR.W    R0,??DataTable14_5  ;; 0xffff8700
        B.N      ??ssl_parse_alpn_ext_1
//  637         {
//  638             mbedtls_ssl_send_alert_message( ssl, MBEDTLS_SSL_ALERT_LEVEL_FATAL,
//  639                                             MBEDTLS_SSL_ALERT_MSG_ILLEGAL_PARAMETER );
??ssl_parse_alpn_ext_5:
        MOVS     R2,#+47
        MOVS     R1,#+2
        MOV      R0,R4
          CFI FunCall mbedtls_ssl_send_alert_message
        BL       mbedtls_ssl_send_alert_message
//  640             return( MBEDTLS_ERR_SSL_BAD_HS_CLIENT_HELLO );
        LDR.W    R0,??DataTable14_5  ;; 0xffff8700
        B.N      ??ssl_parse_alpn_ext_1
//  641         }
//  642     }
//  643 
//  644     /*
//  645      * Use our order of preference
//  646      */
//  647     for( ours = ssl->conf->alpn_list; *ours != NULL; ours++ )
//  648     {
//  649         ours_len = strlen( *ours );
//  650         for( theirs = start; theirs != end; theirs += cur_len )
??ssl_parse_alpn_ext_7:
        ADD      R7,R7,R8
??ssl_parse_alpn_ext_8:
        CMP      R7,R6
        BEQ.N    ??ssl_parse_alpn_ext_9
//  651         {
//  652             cur_len = *theirs++;
        LDRB     R8,[R7], #+1
//  653 
//  654             if( cur_len == ours_len &&
//  655                 memcmp( theirs, *ours, cur_len ) == 0 )
        CMP      R8,R10
        BNE.N    ??ssl_parse_alpn_ext_7
        MOV      R2,R8
        LDR      R1,[R9, #+0]
        MOV      R0,R7
          CFI FunCall memcmp
        BL       memcmp
        CMP      R0,#+0
        BNE.N    ??ssl_parse_alpn_ext_7
//  656             {
//  657                 ssl->alpn_chosen = *ours;
        LDR      R0,[R9, #+0]
        STR      R0,[R4, #+232]
//  658                 return( 0 );
        MOVS     R0,#+0
        B.N      ??ssl_parse_alpn_ext_1
//  659             }
//  660         }
//  661     }
//  662 
//  663     /* If we get there, no match was found */
//  664     mbedtls_ssl_send_alert_message( ssl, MBEDTLS_SSL_ALERT_LEVEL_FATAL,
//  665                             MBEDTLS_SSL_ALERT_MSG_NO_APPLICATION_PROTOCOL );
??ssl_parse_alpn_ext_10:
        MOVS     R2,#+120
        MOVS     R1,#+2
        MOV      R0,R4
          CFI FunCall mbedtls_ssl_send_alert_message
        BL       mbedtls_ssl_send_alert_message
//  666     return( MBEDTLS_ERR_SSL_BAD_HS_CLIENT_HELLO );
        LDR.N    R0,??DataTable14_5  ;; 0xffff8700
??ssl_parse_alpn_ext_1:
        POP      {R4-R10,PC}      ;; return
??ssl_parse_alpn_ext_6:
        LDR      R0,[R4, #+0]
        LDR      R9,[R0, #+164]
        B.N      ??ssl_parse_alpn_ext_11
??ssl_parse_alpn_ext_9:
        ADD      R9,R9,#+4
??ssl_parse_alpn_ext_11:
        LDR      R0,[R9, #+0]
        CMP      R0,#+0
        BEQ.N    ??ssl_parse_alpn_ext_10
          CFI FunCall strlen
        BL       strlen
        MOV      R10,R0
        MOV      R7,R5
        B.N      ??ssl_parse_alpn_ext_8
//  667 }
          CFI EndBlock cfiBlock24
//  668 #endif /* MBEDTLS_SSL_ALPN */
//  669 
//  670 /*
//  671  * Auxiliary functions for ServerHello parsing and related actions
//  672  */
//  673 
//  674 #if defined(MBEDTLS_X509_CRT_PARSE_C)
//  675 /*
//  676  * Return 0 if the given key uses one of the acceptable curves, -1 otherwise
//  677  */
//  678 #if defined(MBEDTLS_ECDSA_C)

        SECTION `.text`:CODE:NOROOT(1)
          CFI Block cfiBlock25 Using cfiCommon0
          CFI Function ssl_check_key_curve
        THUMB
//  679 static int ssl_check_key_curve( mbedtls_pk_context *pk,
//  680                                 const mbedtls_ecp_curve_info **curves )
//  681 {
ssl_check_key_curve:
        PUSH     {R4,LR}
          CFI R14 Frame(CFA, -4)
          CFI R4 Frame(CFA, -8)
          CFI CFA R13+8
        MOV      R2,R0
        MOV      R4,R1
//  682     const mbedtls_ecp_curve_info **crv = curves;
//  683     mbedtls_ecp_group_id grp_id = mbedtls_pk_ec( *pk )->grp.id;
        LDRD     R0,R1,[R2, #+0]
          CFI FunCall mbedtls_pk_ec
        BL       mbedtls_pk_ec
        LDRB     R1,[R0, #+0]
        B.N      ??ssl_check_key_curve_0
//  684 
//  685     while( *crv != NULL )
//  686     {
//  687         if( (*crv)->grp_id == grp_id )
//  688             return( 0 );
//  689         crv++;
??ssl_check_key_curve_1:
        ADDS     R4,R4,#+4
??ssl_check_key_curve_0:
        LDR      R0,[R4, #+0]
        CMP      R0,#+0
        BEQ.N    ??ssl_check_key_curve_2
        LDRB     R0,[R0, #+0]
        CMP      R0,R1
        BNE.N    ??ssl_check_key_curve_1
        MOVS     R0,#+0
        POP      {R4,PC}
//  690     }
//  691 
//  692     return( -1 );
??ssl_check_key_curve_2:
        MOV      R0,#-1
        POP      {R4,PC}          ;; return
//  693 }
          CFI EndBlock cfiBlock25
//  694 #endif /* MBEDTLS_ECDSA_C */
//  695 
//  696 /*
//  697  * Try picking a certificate for this ciphersuite,
//  698  * return 0 on success and -1 on failure.
//  699  */

        SECTION `.text`:CODE:NOROOT(1)
          CFI Block cfiBlock26 Using cfiCommon0
          CFI Function ssl_pick_cert
        THUMB
//  700 static int ssl_pick_cert( mbedtls_ssl_context *ssl,
//  701                           const mbedtls_ssl_ciphersuite_t * ciphersuite_info )
//  702 {
ssl_pick_cert:
        PUSH     {R1-R9,LR}
          CFI R14 Frame(CFA, -4)
          CFI R9 Frame(CFA, -8)
          CFI R8 Frame(CFA, -12)
          CFI R7 Frame(CFA, -16)
          CFI R6 Frame(CFA, -20)
          CFI R5 Frame(CFA, -24)
          CFI R4 Frame(CFA, -28)
          CFI CFA R13+40
        MOV      R6,R0
        MOV      R7,R1
//  703     mbedtls_ssl_key_cert *cur, *list, *fallback = NULL;
        MOVS     R5,#+0
//  704     mbedtls_pk_type_t pk_alg =
//  705         mbedtls_ssl_get_ciphersuite_sig_pk_alg( ciphersuite_info );
        MOV      R0,R7
          CFI FunCall mbedtls_ssl_get_ciphersuite_sig_pk_alg
        BL       mbedtls_ssl_get_ciphersuite_sig_pk_alg
        MOV      R9,R0
//  706     uint32_t flags;
//  707 
//  708 #if defined(MBEDTLS_SSL_SERVER_NAME_INDICATION)
//  709     if( ssl->handshake->sni_key_cert != NULL )
        LDR      R0,[R6, #+60]
        LDR      R0,[R0, #+456]
        CMP      R0,#+0
        BEQ.N    ??ssl_pick_cert_0
//  710         list = ssl->handshake->sni_key_cert;
        LDR      R0,[R6, #+60]
        LDR      R4,[R0, #+456]
        B.N      ??ssl_pick_cert_1
//  711     else
//  712 #endif
//  713         list = ssl->conf->key_cert;
??ssl_pick_cert_0:
        LDR      R0,[R6, #+0]
        LDR      R4,[R0, #+104]
//  714 
//  715     if( pk_alg == MBEDTLS_PK_NONE )
??ssl_pick_cert_1:
        MOV      R0,R9
        CMP      R0,#+0
        BNE.N    ??ssl_pick_cert_2
//  716         return( 0 );
        MOV      R0,R5
        B.N      ??ssl_pick_cert_3
//  717 
//  718     MBEDTLS_SSL_DEBUG_MSG( 3, ( "ciphersuite requires certificate" ) );
??ssl_pick_cert_2:
        LDR.W    R8,??DataTable14_2
        LDR.N    R0,??DataTable14_20
        STR      R0,[SP, #+0]
        MOVW     R3,#+718
        MOV      R2,R8
        MOVS     R1,#+3
        MOV      R0,R6
          CFI FunCall mbedtls_debug_print_msg
        BL       mbedtls_debug_print_msg
//  719 
//  720     if( list == NULL )
        CMP      R4,#+0
        BNE.N    ??ssl_pick_cert_4
//  721     {
//  722         MBEDTLS_SSL_DEBUG_MSG( 3, ( "server has no certificate" ) );
        LDR.N    R0,??DataTable14_21
        STR      R0,[SP, #+0]
        MOVW     R3,#+722
        MOV      R2,R8
        MOVS     R1,#+3
        MOV      R0,R6
          CFI FunCall mbedtls_debug_print_msg
        BL       mbedtls_debug_print_msg
//  723         return( -1 );
        MOV      R0,#-1
        B.N      ??ssl_pick_cert_3
//  724     }
//  725 
//  726     for( cur = list; cur != NULL; cur = cur->next )
//  727     {
//  728         MBEDTLS_SSL_DEBUG_CRT( 3, "candidate certificate chain, certificate",
//  729                           cur->cert );
//  730 
//  731         if( ! mbedtls_pk_can_do( &cur->cert->pk, pk_alg ) )
//  732         {
//  733             MBEDTLS_SSL_DEBUG_MSG( 3, ( "certificate mismatch: key type" ) );
//  734             continue;
//  735         }
//  736 
//  737         /*
//  738          * This avoids sending the client a cert it'll reject based on
//  739          * keyUsage or other extensions.
//  740          *
//  741          * It also allows the user to provision different certificates for
//  742          * different uses based on keyUsage, eg if they want to avoid signing
//  743          * and decrypting with the same RSA key.
//  744          */
//  745         if( mbedtls_ssl_check_cert_usage( cur->cert, ciphersuite_info,
//  746                                   MBEDTLS_SSL_IS_SERVER, &flags ) != 0 )
//  747         {
//  748             MBEDTLS_SSL_DEBUG_MSG( 3, ( "certificate mismatch: "
//  749                                 "(extended) key usage extension" ) );
//  750             continue;
//  751         }
//  752 
//  753 #if defined(MBEDTLS_ECDSA_C)
//  754         if( pk_alg == MBEDTLS_PK_ECDSA &&
//  755             ssl_check_key_curve( &cur->cert->pk, ssl->handshake->curves ) != 0 )
//  756         {
//  757             MBEDTLS_SSL_DEBUG_MSG( 3, ( "certificate mismatch: elliptic curve" ) );
//  758             continue;
//  759         }
//  760 #endif
//  761 
//  762         /*
//  763          * Try to select a SHA-1 certificate for pre-1.2 clients, but still
//  764          * present them a SHA-higher cert rather than failing if it's the only
//  765          * one we got that satisfies the other conditions.
//  766          */
//  767         if( ssl->minor_ver < MBEDTLS_SSL_MINOR_VERSION_3 &&
//  768             cur->cert->sig_md != MBEDTLS_MD_SHA1 )
??ssl_pick_cert_5:
        LDR      R0,[R6, #+20]
        CMP      R0,#+3
        BGE.N    ??ssl_pick_cert_6
        LDR      R0,[R4, #+0]
        LDRB     R0,[R0, #+296]
        CMP      R0,#+4
        BEQ.N    ??ssl_pick_cert_6
//  769         {
//  770             if( fallback == NULL )
        CMP      R5,#+0
        BNE.N    ??ssl_pick_cert_7
//  771                 fallback = cur;
        MOV      R5,R4
//  772             {
//  773                 MBEDTLS_SSL_DEBUG_MSG( 3, ( "certificate not preferred: "
//  774                                     "sha-2 with pre-TLS 1.2 client" ) );
??ssl_pick_cert_7:
        LDR.N    R0,??DataTable14_22
        STR      R0,[SP, #+0]
        MOVW     R3,#+774
        MOV      R2,R8
        MOVS     R1,#+3
        MOV      R0,R6
          CFI FunCall mbedtls_debug_print_msg
        BL       mbedtls_debug_print_msg
//  775             continue;
//  776             }
//  777         }
??ssl_pick_cert_8:
        LDR      R4,[R4, #+8]
??ssl_pick_cert_4:
        CMP      R4,#+0
        BEQ.N    ??ssl_pick_cert_6
        LDR      R0,[R4, #+0]
        STR      R0,[SP, #+4]
        LDR.N    R0,??DataTable14_23
        STR      R0,[SP, #+0]
        MOVW     R3,#+729
        MOV      R2,R8
        MOVS     R1,#+3
        MOV      R0,R6
          CFI FunCall mbedtls_debug_print_crt
        BL       mbedtls_debug_print_crt
        MOV      R1,R9
        LDR      R0,[R4, #+0]
        ADDS     R0,R0,#+188
          CFI FunCall mbedtls_pk_can_do
        BL       mbedtls_pk_can_do
        CMP      R0,#+0
        BNE.N    ??ssl_pick_cert_9
        LDR.N    R0,??DataTable14_24
        STR      R0,[SP, #+0]
        MOVW     R3,#+733
        MOV      R2,R8
        MOVS     R1,#+3
        MOV      R0,R6
          CFI FunCall mbedtls_debug_print_msg
        BL       mbedtls_debug_print_msg
        B.N      ??ssl_pick_cert_8
??ssl_pick_cert_9:
        ADD      R3,SP,#+8
        MOVS     R2,#+1
        MOV      R1,R7
        LDR      R0,[R4, #+0]
          CFI FunCall mbedtls_ssl_check_cert_usage
        BL       mbedtls_ssl_check_cert_usage
        CMP      R0,#+0
        BEQ.N    ??ssl_pick_cert_10
        LDR.N    R0,??DataTable14_25
        STR      R0,[SP, #+0]
        MOVW     R3,#+749
        MOV      R2,R8
        MOVS     R1,#+3
        MOV      R0,R6
          CFI FunCall mbedtls_debug_print_msg
        BL       mbedtls_debug_print_msg
        B.N      ??ssl_pick_cert_8
??ssl_pick_cert_10:
        MOV      R0,R9
        CMP      R0,#+4
        BNE.N    ??ssl_pick_cert_5
        LDR      R0,[R6, #+60]
        LDR      R1,[R0, #+436]
        LDR      R0,[R4, #+0]
        ADDS     R0,R0,#+188
          CFI FunCall ssl_check_key_curve
        BL       ssl_check_key_curve
        CMP      R0,#+0
        BEQ.N    ??ssl_pick_cert_5
        LDR.N    R0,??DataTable14_26
        STR      R0,[SP, #+0]
        MOVW     R3,#+757
        MOV      R2,R8
        MOVS     R1,#+3
        MOV      R0,R6
          CFI FunCall mbedtls_debug_print_msg
        BL       mbedtls_debug_print_msg
        B.N      ??ssl_pick_cert_8
//  778 
//  779         /* If we get there, we got a winner */
//  780         break;
//  781     }
//  782 
//  783     if( cur == NULL )
//  784         cur = fallback;
//  785 
//  786     /* Do not update ssl->handshake->key_cert unless there is a match */
//  787     if( cur != NULL )
//  788     {
//  789         ssl->handshake->key_cert = cur;
//  790         MBEDTLS_SSL_DEBUG_CRT( 3, "selected certificate chain, certificate",
//  791                           ssl->handshake->key_cert->cert );
//  792         return( 0 );
//  793     }
//  794 
//  795     return( -1 );
??ssl_pick_cert_11:
        MOV      R0,#-1
??ssl_pick_cert_3:
        POP      {R1-R9,PC}       ;; return
??ssl_pick_cert_6:
        MOV      R0,R6
        CMP      R4,#+0
        BNE.N    ??ssl_pick_cert_12
        MOV      R4,R5
??ssl_pick_cert_12:
        CMP      R4,#+0
        BEQ.N    ??ssl_pick_cert_11
        LDR      R1,[R0, #+60]
        STR      R4,[R1, #+448]
        LDR      R1,[R0, #+60]
        LDR      R1,[R1, #+448]
        LDR      R1,[R1, #+0]
        STR      R1,[SP, #+4]
        LDR.N    R1,??DataTable14_27
        STR      R1,[SP, #+0]
        MOVW     R3,#+791
        MOV      R2,R8
        MOVS     R1,#+3
          CFI FunCall mbedtls_debug_print_crt
        BL       mbedtls_debug_print_crt
        MOVS     R0,#+0
        B.N      ??ssl_pick_cert_3
//  796 }
          CFI EndBlock cfiBlock26
//  797 #endif /* MBEDTLS_X509_CRT_PARSE_C */
//  798 
//  799 /*
//  800  * Check if a given ciphersuite is suitable for use with our config/keys/etc
//  801  * Sets ciphersuite_info only if the suite matches.
//  802  */

        SECTION `.text`:CODE:NOROOT(1)
          CFI Block cfiBlock27 Using cfiCommon0
          CFI Function ssl_ciphersuite_match
        THUMB
//  803 static int ssl_ciphersuite_match( mbedtls_ssl_context *ssl, int suite_id,
//  804                                   const mbedtls_ssl_ciphersuite_t **ciphersuite_info )
//  805 {
ssl_ciphersuite_match:
        PUSH     {R2-R8,LR}
          CFI R14 Frame(CFA, -4)
          CFI R8 Frame(CFA, -8)
          CFI R7 Frame(CFA, -12)
          CFI R6 Frame(CFA, -16)
          CFI R5 Frame(CFA, -20)
          CFI R4 Frame(CFA, -24)
          CFI CFA R13+32
        MOV      R5,R0
        MOV      R6,R2
//  806     const mbedtls_ssl_ciphersuite_t *suite_info;
//  807 
//  808 #if defined(MBEDTLS_SSL_PROTO_TLS1_2) && \ 
//  809     defined(MBEDTLS_KEY_EXCHANGE__WITH_CERT__ENABLED)
//  810     mbedtls_pk_type_t sig_type;
//  811 #endif
//  812 
//  813     suite_info = mbedtls_ssl_ciphersuite_from_id( suite_id );
        MOV      R0,R1
          CFI FunCall mbedtls_ssl_ciphersuite_from_id
        BL       mbedtls_ssl_ciphersuite_from_id
        MOVS     R4,R0
//  814     if( suite_info == NULL )
        BNE.N    ??ssl_ciphersuite_match_0
//  815     {
//  816         MBEDTLS_SSL_DEBUG_MSG( 1, ( "should never happen" ) );
        LDR.N    R0,??DataTable14_28
        STR      R0,[SP, #+0]
        MOV      R3,#+816
        LDR.N    R2,??DataTable14_2
        MOVS     R1,#+1
        MOV      R0,R5
          CFI FunCall mbedtls_debug_print_msg
        BL       mbedtls_debug_print_msg
//  817         return( MBEDTLS_ERR_SSL_INTERNAL_ERROR );
        LDR.N    R0,??DataTable14_29  ;; 0xffff9400
        B.N      ??ssl_ciphersuite_match_1
//  818     }
//  819 
//  820     MBEDTLS_SSL_DEBUG_MSG( 3, ( "trying ciphersuite: %s", suite_info->name ) );
??ssl_ciphersuite_match_0:
        LDR.N    R7,??DataTable14_2
        LDR      R0,[R4, #+4]
        STR      R0,[SP, #+4]
        LDR.N    R0,??DataTable14_30
        STR      R0,[SP, #+0]
        MOV      R3,#+820
        MOV      R2,R7
        MOVS     R1,#+3
        MOV      R0,R5
          CFI FunCall mbedtls_debug_print_msg
        BL       mbedtls_debug_print_msg
//  821 
//  822     if( suite_info->min_minor_ver > ssl->minor_ver ||
//  823         suite_info->max_minor_ver < ssl->minor_ver )
        LDR      R0,[R5, #+20]
        LDR      R1,[R4, #+16]
        CMP      R0,R1
        BLT.N    ??ssl_ciphersuite_match_2
        LDR      R0,[R4, #+24]
        LDR      R1,[R5, #+20]
        CMP      R0,R1
        BGE.N    ??ssl_ciphersuite_match_3
//  824     {
//  825         MBEDTLS_SSL_DEBUG_MSG( 3, ( "ciphersuite mismatch: version" ) );
??ssl_ciphersuite_match_2:
        LDR.N    R0,??DataTable14_31
        STR      R0,[SP, #+0]
        MOVW     R3,#+825
        MOV      R2,R7
        MOVS     R1,#+3
        MOV      R0,R5
          CFI FunCall mbedtls_debug_print_msg
        BL       mbedtls_debug_print_msg
//  826         return( 0 );
        MOVS     R0,#+0
        B.N      ??ssl_ciphersuite_match_1
//  827     }
//  828 
//  829 #if defined(MBEDTLS_SSL_PROTO_DTLS)
//  830     if( ssl->conf->transport == MBEDTLS_SSL_TRANSPORT_DATAGRAM &&
//  831         ( suite_info->flags & MBEDTLS_CIPHERSUITE_NODTLS ) )
??ssl_ciphersuite_match_3:
        LDR      R0,[R5, #+0]
        LDR      R0,[R0, #+204]
        UBFX     R0,R0,#+1,#+1
        CMP      R0,#+0
        BEQ.N    ??ssl_ciphersuite_match_4
        LDRB     R0,[R4, #+28]
        LSLS     R0,R0,#+29
        BPL.N    ??ssl_ciphersuite_match_4
//  832         return( 0 );
        MOVS     R0,#+0
        B.N      ??ssl_ciphersuite_match_1
//  833 #endif
//  834 
//  835 #if defined(MBEDTLS_ARC4_C)
//  836     if( ssl->conf->arc4_disabled == MBEDTLS_SSL_ARC4_DISABLED &&
//  837             suite_info->cipher == MBEDTLS_CIPHER_ARC4_128 )
//  838     {
//  839         MBEDTLS_SSL_DEBUG_MSG( 3, ( "ciphersuite mismatch: rc4" ) );
//  840         return( 0 );
//  841     }
//  842 #endif
//  843 
//  844 #if defined(MBEDTLS_KEY_EXCHANGE_ECJPAKE_ENABLED)
//  845     if( suite_info->key_exchange == MBEDTLS_KEY_EXCHANGE_ECJPAKE &&
//  846         ( ssl->handshake->cli_exts & MBEDTLS_TLS_EXT_ECJPAKE_KKPP_OK ) == 0 )
//  847     {
//  848         MBEDTLS_SSL_DEBUG_MSG( 3, ( "ciphersuite mismatch: ecjpake "
//  849                                     "not configured or ext missing" ) );
//  850         return( 0 );
//  851     }
//  852 #endif
//  853 
//  854 
//  855 #if defined(MBEDTLS_ECDH_C) || defined(MBEDTLS_ECDSA_C)
//  856     if( mbedtls_ssl_ciphersuite_uses_ec( suite_info ) &&
//  857         ( ssl->handshake->curves == NULL ||
//  858           ssl->handshake->curves[0] == NULL ) )
??ssl_ciphersuite_match_4:
        MOV      R0,R4
          CFI FunCall mbedtls_ssl_ciphersuite_uses_ec
        BL       mbedtls_ssl_ciphersuite_uses_ec
        CMP      R0,#+0
        BEQ.N    ??ssl_ciphersuite_match_5
        LDR      R0,[R5, #+60]
        LDR      R0,[R0, #+436]
        CMP      R0,#+0
        BEQ.N    ??ssl_ciphersuite_match_6
        LDR      R0,[R5, #+60]
        LDR      R0,[R0, #+436]
        LDR      R0,[R0, #+0]
        CMP      R0,#+0
        BNE.N    ??ssl_ciphersuite_match_5
//  859     {
//  860         MBEDTLS_SSL_DEBUG_MSG( 3, ( "ciphersuite mismatch: "
//  861                             "no common elliptic curve" ) );
??ssl_ciphersuite_match_6:
        LDR.N    R0,??DataTable14_32
        STR      R0,[SP, #+0]
        MOVW     R3,#+861
        MOV      R2,R7
        MOVS     R1,#+3
        MOV      R0,R5
          CFI FunCall mbedtls_debug_print_msg
        BL       mbedtls_debug_print_msg
//  862         return( 0 );
        MOVS     R0,#+0
        B.N      ??ssl_ciphersuite_match_1
//  863     }
//  864 #endif
//  865 
//  866 #if defined(MBEDTLS_KEY_EXCHANGE__SOME__PSK_ENABLED)
//  867     /* If the ciphersuite requires a pre-shared key and we don't
//  868      * have one, skip it now rather than failing later */
//  869     if( mbedtls_ssl_ciphersuite_uses_psk( suite_info ) &&
//  870         ssl->conf->f_psk == NULL &&
//  871         ( ssl->conf->psk == NULL || ssl->conf->psk_identity == NULL ||
//  872           ssl->conf->psk_identity_len == 0 || ssl->conf->psk_len == 0 ) )
??ssl_ciphersuite_match_5:
        MOV      R0,R4
          CFI FunCall mbedtls_ssl_ciphersuite_uses_psk
        BL       mbedtls_ssl_ciphersuite_uses_psk
        CMP      R0,#+0
        BEQ.N    ??ssl_ciphersuite_match_7
        LDR      R0,[R5, #+0]
        LDR      R0,[R0, #+60]
        CMP      R0,#+0
        BNE.N    ??ssl_ciphersuite_match_7
        LDR      R0,[R5, #+0]
        LDR      R0,[R0, #+148]
        CMP      R0,#+0
        BEQ.N    ??ssl_ciphersuite_match_8
        LDR      R0,[R5, #+0]
        LDR      R0,[R0, #+156]
        CMP      R0,#+0
        BEQ.N    ??ssl_ciphersuite_match_8
        LDR      R0,[R5, #+0]
        LDR      R0,[R0, #+160]
        CMP      R0,#+0
        BEQ.N    ??ssl_ciphersuite_match_8
        LDR      R0,[R5, #+0]
        LDR      R0,[R0, #+152]
        CMP      R0,#+0
        BNE.N    ??ssl_ciphersuite_match_7
//  873     {
//  874         MBEDTLS_SSL_DEBUG_MSG( 3, ( "ciphersuite mismatch: no pre-shared key" ) );
??ssl_ciphersuite_match_8:
        LDR.N    R0,??DataTable14_33
        STR      R0,[SP, #+0]
        MOVW     R3,#+874
        MOV      R2,R7
        MOVS     R1,#+3
        MOV      R0,R5
          CFI FunCall mbedtls_debug_print_msg
        BL       mbedtls_debug_print_msg
//  875         return( 0 );
        MOVS     R0,#+0
        B.N      ??ssl_ciphersuite_match_1
//  876     }
//  877 #endif
//  878 
//  879 #if defined(MBEDTLS_SSL_PROTO_TLS1_2) && \ 
//  880     defined(MBEDTLS_KEY_EXCHANGE__WITH_CERT__ENABLED)
//  881     /* If the ciphersuite requires signing, check whether
//  882      * a suitable hash algorithm is present. */
//  883     if( ssl->minor_ver == MBEDTLS_SSL_MINOR_VERSION_3 )
??ssl_ciphersuite_match_7:
        LDR      R0,[R5, #+20]
        CMP      R0,#+3
        BNE.N    ??ssl_ciphersuite_match_9
//  884     {
//  885         sig_type = mbedtls_ssl_get_ciphersuite_sig_alg( suite_info );
        MOV      R0,R4
          CFI FunCall mbedtls_ssl_get_ciphersuite_sig_alg
        BL       mbedtls_ssl_get_ciphersuite_sig_alg
        MOV      R8,R0
//  886         if( sig_type != MBEDTLS_PK_NONE &&
//  887             mbedtls_ssl_sig_hash_set_find( &ssl->handshake->hash_algs, sig_type ) == MBEDTLS_MD_NONE )
        CMP      R0,#+0
        BEQ.N    ??ssl_ciphersuite_match_9
        MOV      R1,R8
        LDR      R0,[R5, #+60]
          CFI FunCall mbedtls_ssl_sig_hash_set_find
        BL       mbedtls_ssl_sig_hash_set_find
        CMP      R0,#+0
        BNE.N    ??ssl_ciphersuite_match_9
//  888         {
//  889             MBEDTLS_SSL_DEBUG_MSG( 3, ( "ciphersuite mismatch: no suitable hash algorithm "
//  890                                         "for signature algorithm %d", sig_type ) );
        STR      R8,[SP, #+4]
        LDR.N    R0,??DataTable14_34
        STR      R0,[SP, #+0]
        MOVW     R3,#+890
        MOV      R2,R7
        MOVS     R1,#+3
        MOV      R0,R5
          CFI FunCall mbedtls_debug_print_msg
        BL       mbedtls_debug_print_msg
//  891             return( 0 );
        MOVS     R0,#+0
        B.N      ??ssl_ciphersuite_match_1
//  892         }
//  893     }
//  894 
//  895 #endif /* MBEDTLS_SSL_PROTO_TLS1_2 &&
//  896           MBEDTLS_KEY_EXCHANGE__WITH_CERT__ENABLED */
//  897 
//  898 #if defined(MBEDTLS_X509_CRT_PARSE_C)
//  899     /*
//  900      * Final check: if ciphersuite requires us to have a
//  901      * certificate/key of a particular type:
//  902      * - select the appropriate certificate if we have one, or
//  903      * - try the next ciphersuite if we don't
//  904      * This must be done last since we modify the key_cert list.
//  905      */
//  906     if( ssl_pick_cert( ssl, suite_info ) != 0 )
??ssl_ciphersuite_match_9:
        MOV      R1,R4
        MOV      R0,R5
          CFI FunCall ssl_pick_cert
        BL       ssl_pick_cert
        CMP      R0,#+0
        BEQ.N    ??ssl_ciphersuite_match_10
//  907     {
//  908         MBEDTLS_SSL_DEBUG_MSG( 3, ( "ciphersuite mismatch: "
//  909                             "no suitable certificate" ) );
        LDR.N    R0,??DataTable14_35
        STR      R0,[SP, #+0]
        MOVW     R3,#+909
        MOV      R2,R7
        MOVS     R1,#+3
        MOV      R0,R5
          CFI FunCall mbedtls_debug_print_msg
        BL       mbedtls_debug_print_msg
//  910         return( 0 );
        MOVS     R0,#+0
        B.N      ??ssl_ciphersuite_match_1
//  911     }
//  912 #endif
//  913 
//  914     *ciphersuite_info = suite_info;
??ssl_ciphersuite_match_10:
        STR      R4,[R6, #+0]
//  915     return( 0 );
        MOVS     R0,#+0
??ssl_ciphersuite_match_1:
        POP      {R1,R2,R4-R8,PC}  ;; return
//  916 }
          CFI EndBlock cfiBlock27

        SECTION `.text`:CODE:NOROOT(2)
        SECTION_TYPE SHT_PROGBITS, 0
        DATA
??DataTable14:
        DATA32
        DC32     0xffff8f00

        SECTION `.text`:CODE:NOROOT(2)
        SECTION_TYPE SHT_PROGBITS, 0
        DATA
??DataTable14_1:
        DATA32
        DC32     0xffff8100

        SECTION `.text`:CODE:NOROOT(2)
        SECTION_TYPE SHT_PROGBITS, 0
        DATA
??DataTable14_2:
        DATA32
        DC32     ?_0

        SECTION `.text`:CODE:NOROOT(2)
        SECTION_TYPE SHT_PROGBITS, 0
        DATA
??DataTable14_3:
        DATA32
        DC32     ?_1

        SECTION `.text`:CODE:NOROOT(2)
        SECTION_TYPE SHT_PROGBITS, 0
        DATA
??DataTable14_4:
        DATA32
        DC32     ?_2

        SECTION `.text`:CODE:NOROOT(2)
        SECTION_TYPE SHT_PROGBITS, 0
        DATA
??DataTable14_5:
        DATA32
        DC32     0xffff8700

        SECTION `.text`:CODE:NOROOT(2)
        SECTION_TYPE SHT_PROGBITS, 0
        DATA
??DataTable14_6:
        DATA32
        DC32     ?_3

        SECTION `.text`:CODE:NOROOT(2)
        SECTION_TYPE SHT_PROGBITS, 0
        DATA
??DataTable14_7:
        DATA32
        DC32     ?_4

        SECTION `.text`:CODE:NOROOT(2)
        SECTION_TYPE SHT_PROGBITS, 0
        DATA
??DataTable14_8:
        DATA32
        DC32     ?_5

        SECTION `.text`:CODE:NOROOT(2)
        SECTION_TYPE SHT_PROGBITS, 0
        DATA
??DataTable14_9:
        DATA32
        DC32     ?_9

        SECTION `.text`:CODE:NOROOT(2)
        SECTION_TYPE SHT_PROGBITS, 0
        DATA
??DataTable14_10:
        DATA32
        DC32     ?_8

        SECTION `.text`:CODE:NOROOT(2)
        SECTION_TYPE SHT_PROGBITS, 0
        DATA
??DataTable14_11:
        DATA32
        DC32     ?_6

        SECTION `.text`:CODE:NOROOT(2)
        SECTION_TYPE SHT_PROGBITS, 0
        DATA
??DataTable14_12:
        DATA32
        DC32     ?_7

        SECTION `.text`:CODE:NOROOT(2)
        SECTION_TYPE SHT_PROGBITS, 0
        DATA
??DataTable14_13:
        DATA32
        DC32     ?_10

        SECTION `.text`:CODE:NOROOT(2)
        SECTION_TYPE SHT_PROGBITS, 0
        DATA
??DataTable14_14:
        DATA32
        DC32     ?_11

        SECTION `.text`:CODE:NOROOT(2)
        SECTION_TYPE SHT_PROGBITS, 0
        DATA
??DataTable14_15:
        DATA32
        DC32     ?_12

        SECTION `.text`:CODE:NOROOT(2)
        SECTION_TYPE SHT_PROGBITS, 0
        DATA
??DataTable14_16:
        DATA32
        DC32     ?_13

        SECTION `.text`:CODE:NOROOT(2)
        SECTION_TYPE SHT_PROGBITS, 0
        DATA
??DataTable14_17:
        DATA32
        DC32     ?_14

        SECTION `.text`:CODE:NOROOT(2)
        SECTION_TYPE SHT_PROGBITS, 0
        DATA
??DataTable14_18:
        DATA32
        DC32     ?_15

        SECTION `.text`:CODE:NOROOT(2)
        SECTION_TYPE SHT_PROGBITS, 0
        DATA
??DataTable14_19:
        DATA32
        DC32     ?_16

        SECTION `.text`:CODE:NOROOT(2)
        SECTION_TYPE SHT_PROGBITS, 0
        DATA
??DataTable14_20:
        DATA32
        DC32     ?_17

        SECTION `.text`:CODE:NOROOT(2)
        SECTION_TYPE SHT_PROGBITS, 0
        DATA
??DataTable14_21:
        DATA32
        DC32     ?_18

        SECTION `.text`:CODE:NOROOT(2)
        SECTION_TYPE SHT_PROGBITS, 0
        DATA
??DataTable14_22:
        DATA32
        DC32     ?_23

        SECTION `.text`:CODE:NOROOT(2)
        SECTION_TYPE SHT_PROGBITS, 0
        DATA
??DataTable14_23:
        DATA32
        DC32     ?_19

        SECTION `.text`:CODE:NOROOT(2)
        SECTION_TYPE SHT_PROGBITS, 0
        DATA
??DataTable14_24:
        DATA32
        DC32     ?_20

        SECTION `.text`:CODE:NOROOT(2)
        SECTION_TYPE SHT_PROGBITS, 0
        DATA
??DataTable14_25:
        DATA32
        DC32     ?_21

        SECTION `.text`:CODE:NOROOT(2)
        SECTION_TYPE SHT_PROGBITS, 0
        DATA
??DataTable14_26:
        DATA32
        DC32     ?_22

        SECTION `.text`:CODE:NOROOT(2)
        SECTION_TYPE SHT_PROGBITS, 0
        DATA
??DataTable14_27:
        DATA32
        DC32     ?_24

        SECTION `.text`:CODE:NOROOT(2)
        SECTION_TYPE SHT_PROGBITS, 0
        DATA
??DataTable14_28:
        DATA32
        DC32     ?_25

        SECTION `.text`:CODE:NOROOT(2)
        SECTION_TYPE SHT_PROGBITS, 0
        DATA
??DataTable14_29:
        DATA32
        DC32     0xffff9400

        SECTION `.text`:CODE:NOROOT(2)
        SECTION_TYPE SHT_PROGBITS, 0
        DATA
??DataTable14_30:
        DATA32
        DC32     ?_26

        SECTION `.text`:CODE:NOROOT(2)
        SECTION_TYPE SHT_PROGBITS, 0
        DATA
??DataTable14_31:
        DATA32
        DC32     ?_27

        SECTION `.text`:CODE:NOROOT(2)
        SECTION_TYPE SHT_PROGBITS, 0
        DATA
??DataTable14_32:
        DATA32
        DC32     ?_28

        SECTION `.text`:CODE:NOROOT(2)
        SECTION_TYPE SHT_PROGBITS, 0
        DATA
??DataTable14_33:
        DATA32
        DC32     ?_29

        SECTION `.text`:CODE:NOROOT(2)
        SECTION_TYPE SHT_PROGBITS, 0
        DATA
??DataTable14_34:
        DATA32
        DC32     ?_30

        SECTION `.text`:CODE:NOROOT(2)
        SECTION_TYPE SHT_PROGBITS, 0
        DATA
??DataTable14_35:
        DATA32
        DC32     ?_31
//  917 
//  918 #if defined(MBEDTLS_SSL_SRV_SUPPORT_SSLV2_CLIENT_HELLO)
//  919 static int ssl_parse_client_hello_v2( mbedtls_ssl_context *ssl )
//  920 {
//  921     int ret, got_common_suite;
//  922     unsigned int i, j;
//  923     size_t n;
//  924     unsigned int ciph_len, sess_len, chal_len;
//  925     unsigned char *buf, *p;
//  926     const int *ciphersuites;
//  927     const mbedtls_ssl_ciphersuite_t *ciphersuite_info;
//  928 
//  929     MBEDTLS_SSL_DEBUG_MSG( 2, ( "=> parse client hello v2" ) );
//  930 
//  931 #if defined(MBEDTLS_SSL_RENEGOTIATION)
//  932     if( ssl->renego_status != MBEDTLS_SSL_INITIAL_HANDSHAKE )
//  933     {
//  934         MBEDTLS_SSL_DEBUG_MSG( 1, ( "client hello v2 illegal for renegotiation" ) );
//  935         mbedtls_ssl_send_alert_message( ssl, MBEDTLS_SSL_ALERT_LEVEL_FATAL,
//  936                                         MBEDTLS_SSL_ALERT_MSG_HANDSHAKE_FAILURE );
//  937         return( MBEDTLS_ERR_SSL_BAD_HS_CLIENT_HELLO );
//  938     }
//  939 #endif /* MBEDTLS_SSL_RENEGOTIATION */
//  940 
//  941     buf = ssl->in_hdr;
//  942 
//  943     MBEDTLS_SSL_DEBUG_BUF( 4, "record header", buf, 5 );
//  944 
//  945     MBEDTLS_SSL_DEBUG_MSG( 3, ( "client hello v2, message type: %d",
//  946                    buf[2] ) );
//  947     MBEDTLS_SSL_DEBUG_MSG( 3, ( "client hello v2, message len.: %d",
//  948                    ( ( buf[0] & 0x7F ) << 8 ) | buf[1] ) );
//  949     MBEDTLS_SSL_DEBUG_MSG( 3, ( "client hello v2, max. version: [%d:%d]",
//  950                    buf[3], buf[4] ) );
//  951 
//  952     /*
//  953      * SSLv2 Client Hello
//  954      *
//  955      * Record layer:
//  956      *     0  .   1   message length
//  957      *
//  958      * SSL layer:
//  959      *     2  .   2   message type
//  960      *     3  .   4   protocol version
//  961      */
//  962     if( buf[2] != MBEDTLS_SSL_HS_CLIENT_HELLO ||
//  963         buf[3] != MBEDTLS_SSL_MAJOR_VERSION_3 )
//  964     {
//  965         MBEDTLS_SSL_DEBUG_MSG( 1, ( "bad client hello message" ) );
//  966         return( MBEDTLS_ERR_SSL_BAD_HS_CLIENT_HELLO );
//  967     }
//  968 
//  969     n = ( ( buf[0] << 8 ) | buf[1] ) & 0x7FFF;
//  970 
//  971     if( n < 17 || n > 512 )
//  972     {
//  973         MBEDTLS_SSL_DEBUG_MSG( 1, ( "bad client hello message" ) );
//  974         return( MBEDTLS_ERR_SSL_BAD_HS_CLIENT_HELLO );
//  975     }
//  976 
//  977     ssl->major_ver = MBEDTLS_SSL_MAJOR_VERSION_3;
//  978     ssl->minor_ver = ( buf[4] <= ssl->conf->max_minor_ver )
//  979                      ? buf[4]  : ssl->conf->max_minor_ver;
//  980 
//  981     if( ssl->minor_ver < ssl->conf->min_minor_ver )
//  982     {
//  983         MBEDTLS_SSL_DEBUG_MSG( 1, ( "client only supports ssl smaller than minimum"
//  984                             " [%d:%d] < [%d:%d]",
//  985                             ssl->major_ver, ssl->minor_ver,
//  986                             ssl->conf->min_major_ver, ssl->conf->min_minor_ver ) );
//  987 
//  988         mbedtls_ssl_send_alert_message( ssl, MBEDTLS_SSL_ALERT_LEVEL_FATAL,
//  989                                      MBEDTLS_SSL_ALERT_MSG_PROTOCOL_VERSION );
//  990         return( MBEDTLS_ERR_SSL_BAD_HS_PROTOCOL_VERSION );
//  991     }
//  992 
//  993     ssl->handshake->max_major_ver = buf[3];
//  994     ssl->handshake->max_minor_ver = buf[4];
//  995 
//  996     if( ( ret = mbedtls_ssl_fetch_input( ssl, 2 + n ) ) != 0 )
//  997     {
//  998         MBEDTLS_SSL_DEBUG_RET( 1, "mbedtls_ssl_fetch_input", ret );
//  999         return( ret );
// 1000     }
// 1001 
// 1002     ssl->handshake->update_checksum( ssl, buf + 2, n );
// 1003 
// 1004     buf = ssl->in_msg;
// 1005     n = ssl->in_left - 5;
// 1006 
// 1007     /*
// 1008      *    0  .   1   ciphersuitelist length
// 1009      *    2  .   3   session id length
// 1010      *    4  .   5   challenge length
// 1011      *    6  .  ..   ciphersuitelist
// 1012      *   ..  .  ..   session id
// 1013      *   ..  .  ..   challenge
// 1014      */
// 1015     MBEDTLS_SSL_DEBUG_BUF( 4, "record contents", buf, n );
// 1016 
// 1017     ciph_len = ( buf[0] << 8 ) | buf[1];
// 1018     sess_len = ( buf[2] << 8 ) | buf[3];
// 1019     chal_len = ( buf[4] << 8 ) | buf[5];
// 1020 
// 1021     MBEDTLS_SSL_DEBUG_MSG( 3, ( "ciph_len: %d, sess_len: %d, chal_len: %d",
// 1022                    ciph_len, sess_len, chal_len ) );
// 1023 
// 1024     /*
// 1025      * Make sure each parameter length is valid
// 1026      */
// 1027     if( ciph_len < 3 || ( ciph_len % 3 ) != 0 )
// 1028     {
// 1029         MBEDTLS_SSL_DEBUG_MSG( 1, ( "bad client hello message" ) );
// 1030         return( MBEDTLS_ERR_SSL_BAD_HS_CLIENT_HELLO );
// 1031     }
// 1032 
// 1033     if( sess_len > 32 )
// 1034     {
// 1035         MBEDTLS_SSL_DEBUG_MSG( 1, ( "bad client hello message" ) );
// 1036         return( MBEDTLS_ERR_SSL_BAD_HS_CLIENT_HELLO );
// 1037     }
// 1038 
// 1039     if( chal_len < 8 || chal_len > 32 )
// 1040     {
// 1041         MBEDTLS_SSL_DEBUG_MSG( 1, ( "bad client hello message" ) );
// 1042         return( MBEDTLS_ERR_SSL_BAD_HS_CLIENT_HELLO );
// 1043     }
// 1044 
// 1045     if( n != 6 + ciph_len + sess_len + chal_len )
// 1046     {
// 1047         MBEDTLS_SSL_DEBUG_MSG( 1, ( "bad client hello message" ) );
// 1048         return( MBEDTLS_ERR_SSL_BAD_HS_CLIENT_HELLO );
// 1049     }
// 1050 
// 1051     MBEDTLS_SSL_DEBUG_BUF( 3, "client hello, ciphersuitelist",
// 1052                    buf + 6, ciph_len );
// 1053     MBEDTLS_SSL_DEBUG_BUF( 3, "client hello, session id",
// 1054                    buf + 6 + ciph_len, sess_len );
// 1055     MBEDTLS_SSL_DEBUG_BUF( 3, "client hello, challenge",
// 1056                    buf + 6 + ciph_len + sess_len, chal_len );
// 1057 
// 1058     p = buf + 6 + ciph_len;
// 1059     ssl->session_negotiate->id_len = sess_len;
// 1060     memset( ssl->session_negotiate->id, 0,
// 1061             sizeof( ssl->session_negotiate->id ) );
// 1062     memcpy( ssl->session_negotiate->id, p, ssl->session_negotiate->id_len );
// 1063 
// 1064     p += sess_len;
// 1065     memset( ssl->handshake->randbytes, 0, 64 );
// 1066     memcpy( ssl->handshake->randbytes + 32 - chal_len, p, chal_len );
// 1067 
// 1068     /*
// 1069      * Check for TLS_EMPTY_RENEGOTIATION_INFO_SCSV
// 1070      */
// 1071     for( i = 0, p = buf + 6; i < ciph_len; i += 3, p += 3 )
// 1072     {
// 1073         if( p[0] == 0 && p[1] == 0 && p[2] == MBEDTLS_SSL_EMPTY_RENEGOTIATION_INFO )
// 1074         {
// 1075             MBEDTLS_SSL_DEBUG_MSG( 3, ( "received TLS_EMPTY_RENEGOTIATION_INFO " ) );
// 1076 #if defined(MBEDTLS_SSL_RENEGOTIATION)
// 1077             if( ssl->renego_status == MBEDTLS_SSL_RENEGOTIATION_IN_PROGRESS )
// 1078             {
// 1079                 MBEDTLS_SSL_DEBUG_MSG( 1, ( "received RENEGOTIATION SCSV "
// 1080                                     "during renegotiation" ) );
// 1081 
// 1082                 mbedtls_ssl_send_alert_message( ssl, MBEDTLS_SSL_ALERT_LEVEL_FATAL,
// 1083                                                 MBEDTLS_SSL_ALERT_MSG_HANDSHAKE_FAILURE );
// 1084                 return( MBEDTLS_ERR_SSL_BAD_HS_CLIENT_HELLO );
// 1085             }
// 1086 #endif /* MBEDTLS_SSL_RENEGOTIATION */
// 1087             ssl->secure_renegotiation = MBEDTLS_SSL_SECURE_RENEGOTIATION;
// 1088             break;
// 1089         }
// 1090     }
// 1091 
// 1092 #if defined(MBEDTLS_SSL_FALLBACK_SCSV)
// 1093     for( i = 0, p = buf + 6; i < ciph_len; i += 3, p += 3 )
// 1094     {
// 1095         if( p[0] == 0 &&
// 1096             p[1] == (unsigned char)( ( MBEDTLS_SSL_FALLBACK_SCSV_VALUE >> 8 ) & 0xff ) &&
// 1097             p[2] == (unsigned char)( ( MBEDTLS_SSL_FALLBACK_SCSV_VALUE      ) & 0xff ) )
// 1098         {
// 1099             MBEDTLS_SSL_DEBUG_MSG( 3, ( "received FALLBACK_SCSV" ) );
// 1100 
// 1101             if( ssl->minor_ver < ssl->conf->max_minor_ver )
// 1102             {
// 1103                 MBEDTLS_SSL_DEBUG_MSG( 1, ( "inapropriate fallback" ) );
// 1104 
// 1105                 mbedtls_ssl_send_alert_message( ssl, MBEDTLS_SSL_ALERT_LEVEL_FATAL,
// 1106                                         MBEDTLS_SSL_ALERT_MSG_INAPROPRIATE_FALLBACK );
// 1107 
// 1108                 return( MBEDTLS_ERR_SSL_BAD_HS_CLIENT_HELLO );
// 1109             }
// 1110 
// 1111             break;
// 1112         }
// 1113     }
// 1114 #endif /* MBEDTLS_SSL_FALLBACK_SCSV */
// 1115 
// 1116     got_common_suite = 0;
// 1117     ciphersuites = ssl->conf->ciphersuite_list[ssl->minor_ver];
// 1118     ciphersuite_info = NULL;
// 1119 #if defined(MBEDTLS_SSL_SRV_RESPECT_CLIENT_PREFERENCE)
// 1120     for( j = 0, p = buf + 6; j < ciph_len; j += 3, p += 3 )
// 1121         for( i = 0; ciphersuites[i] != 0; i++ )
// 1122 #else
// 1123     for( i = 0; ciphersuites[i] != 0; i++ )
// 1124         for( j = 0, p = buf + 6; j < ciph_len; j += 3, p += 3 )
// 1125 #endif
// 1126         {
// 1127             if( p[0] != 0 ||
// 1128                 p[1] != ( ( ciphersuites[i] >> 8 ) & 0xFF ) ||
// 1129                 p[2] != ( ( ciphersuites[i]      ) & 0xFF ) )
// 1130                 continue;
// 1131 
// 1132             got_common_suite = 1;
// 1133 
// 1134             if( ( ret = ssl_ciphersuite_match( ssl, ciphersuites[i],
// 1135                                                &ciphersuite_info ) ) != 0 )
// 1136                 return( ret );
// 1137 
// 1138             if( ciphersuite_info != NULL )
// 1139                 goto have_ciphersuite_v2;
// 1140         }
// 1141 
// 1142     if( got_common_suite )
// 1143     {
// 1144         MBEDTLS_SSL_DEBUG_MSG( 1, ( "got ciphersuites in common, "
// 1145                             "but none of them usable" ) );
// 1146         return( MBEDTLS_ERR_SSL_NO_USABLE_CIPHERSUITE );
// 1147     }
// 1148     else
// 1149     {
// 1150         MBEDTLS_SSL_DEBUG_MSG( 1, ( "got no ciphersuites in common" ) );
// 1151         return( MBEDTLS_ERR_SSL_NO_CIPHER_CHOSEN );
// 1152     }
// 1153 
// 1154 have_ciphersuite_v2:
// 1155     MBEDTLS_SSL_DEBUG_MSG( 2, ( "selected ciphersuite: %s", ciphersuite_info->name ) );
// 1156 
// 1157     ssl->session_negotiate->ciphersuite = ciphersuites[i];
// 1158     ssl->transform_negotiate->ciphersuite_info = ciphersuite_info;
// 1159 
// 1160     /*
// 1161      * SSLv2 Client Hello relevant renegotiation security checks
// 1162      */
// 1163     if( ssl->secure_renegotiation == MBEDTLS_SSL_LEGACY_RENEGOTIATION &&
// 1164         ssl->conf->allow_legacy_renegotiation == MBEDTLS_SSL_LEGACY_BREAK_HANDSHAKE )
// 1165     {
// 1166         MBEDTLS_SSL_DEBUG_MSG( 1, ( "legacy renegotiation, breaking off handshake" ) );
// 1167         mbedtls_ssl_send_alert_message( ssl, MBEDTLS_SSL_ALERT_LEVEL_FATAL,
// 1168                                         MBEDTLS_SSL_ALERT_MSG_HANDSHAKE_FAILURE );
// 1169         return( MBEDTLS_ERR_SSL_BAD_HS_CLIENT_HELLO );
// 1170     }
// 1171 
// 1172     ssl->in_left = 0;
// 1173     ssl->state++;
// 1174 
// 1175     MBEDTLS_SSL_DEBUG_MSG( 2, ( "<= parse client hello v2" ) );
// 1176 
// 1177     return( 0 );
// 1178 }
// 1179 #endif /* MBEDTLS_SSL_SRV_SUPPORT_SSLV2_CLIENT_HELLO */
// 1180 
// 1181 /* This function doesn't alert on errors that happen early during
// 1182    ClientHello parsing because they might indicate that the client is
// 1183    not talking SSL/TLS at all and would not understand our alert. */

        SECTION `.text`:CODE:NOROOT(2)
          CFI Block cfiBlock28 Using cfiCommon0
          CFI Function ssl_parse_client_hello
        THUMB
// 1184 static int ssl_parse_client_hello( mbedtls_ssl_context *ssl )
// 1185 {
ssl_parse_client_hello:
        PUSH     {R4-R11,LR}
          CFI R14 Frame(CFA, -4)
          CFI R11 Frame(CFA, -8)
          CFI R10 Frame(CFA, -12)
          CFI R9 Frame(CFA, -16)
          CFI R8 Frame(CFA, -20)
          CFI R7 Frame(CFA, -24)
          CFI R6 Frame(CFA, -28)
          CFI R5 Frame(CFA, -32)
          CFI R4 Frame(CFA, -36)
          CFI CFA R13+36
        SUB      SP,SP,#+44
          CFI CFA R13+80
        MOV      R6,R0
// 1186     int ret, got_common_suite;
// 1187     size_t i, j;
// 1188     size_t ciph_offset, comp_offset, ext_offset;
// 1189     size_t msg_len, ciph_len, sess_len, comp_len, ext_len;
// 1190 #if defined(MBEDTLS_SSL_PROTO_DTLS)
// 1191     size_t cookie_offset, cookie_len;
// 1192 #endif
// 1193     unsigned char *buf, *p, *ext;
// 1194 #if defined(MBEDTLS_SSL_RENEGOTIATION)
// 1195     int renegotiation_info_seen = 0;
        MOVS     R0,#+0
        STR      R0,[SP, #+40]
// 1196 #endif
// 1197     int handshake_failure = 0;
        STR      R0,[SP, #+32]
// 1198     const int *ciphersuites;
// 1199     const mbedtls_ssl_ciphersuite_t *ciphersuite_info;
// 1200     int major, minor;
// 1201 
// 1202     /* If there is no signature-algorithm extension present,
// 1203      * we need to fall back to the default values for allowed
// 1204      * signature-hash pairs. */
// 1205 #if defined(MBEDTLS_SSL_PROTO_TLS1_2) && \ 
// 1206     defined(MBEDTLS_KEY_EXCHANGE__WITH_CERT__ENABLED)
// 1207     int sig_hash_alg_ext_present = 0;
        STR      R0,[SP, #+36]
// 1208 #endif /* MBEDTLS_SSL_PROTO_TLS1_2 &&
// 1209           MBEDTLS_KEY_EXCHANGE__WITH_CERT__ENABLED */
// 1210 
// 1211     MBEDTLS_SSL_DEBUG_MSG( 2, ( "=> parse client hello" ) );
        LDR.W    R4,??ssl_parse_client_hello_0
        LDR.W    R0,??ssl_parse_client_hello_0+0x4
        STR      R0,[SP, #+0]
        MOVW     R3,#+1211
        MOV      R2,R4
        MOVS     R1,#+2
        MOV      R0,R6
          CFI FunCall mbedtls_debug_print_msg
        BL       mbedtls_debug_print_msg
        B.N      ??ssl_parse_client_hello_1
// 1212 
// 1213 #if defined(MBEDTLS_SSL_DTLS_ANTI_REPLAY)
// 1214 read_record_header:
// 1215 #endif
// 1216     /*
// 1217      * If renegotiating, then the input was read with mbedtls_ssl_read_record(),
// 1218      * otherwise read it ourselves manually in order to support SSLv2
// 1219      * ClientHello, which doesn't use the same record layer format.
// 1220      */
// 1221 #if defined(MBEDTLS_SSL_RENEGOTIATION)
// 1222     if( ssl->renego_status == MBEDTLS_SSL_INITIAL_HANDSHAKE )
// 1223 #endif
// 1224     {
// 1225         if( ( ret = mbedtls_ssl_fetch_input( ssl, 5 ) ) != 0 )
// 1226         {
// 1227             /* No alert on a read error. */
// 1228             MBEDTLS_SSL_DEBUG_RET( 1, "mbedtls_ssl_fetch_input", ret );
// 1229             return( ret );
// 1230         }
// 1231     }
// 1232 
// 1233     buf = ssl->in_hdr;
??ssl_parse_client_hello_2:
        LDR      R5,[R6, #+100]
// 1234 
// 1235 #if defined(MBEDTLS_SSL_SRV_SUPPORT_SSLV2_CLIENT_HELLO)
// 1236 #if defined(MBEDTLS_SSL_PROTO_DTLS)
// 1237     if( ssl->conf->transport == MBEDTLS_SSL_TRANSPORT_STREAM )
// 1238 #endif
// 1239         if( ( buf[0] & 0x80 ) != 0 )
// 1240             return( ssl_parse_client_hello_v2( ssl ) );
// 1241 #endif
// 1242 
// 1243     MBEDTLS_SSL_DEBUG_BUF( 4, "record header", buf, mbedtls_ssl_hdr_len( ssl ) );
        MOV      R0,R6
          CFI FunCall mbedtls_ssl_hdr_len
        BL       mbedtls_ssl_hdr_len
        STR      R0,[SP, #+8]
        STR      R5,[SP, #+4]
        LDR.W    R0,??ssl_parse_client_hello_0+0x8
        STR      R0,[SP, #+0]
        MOVW     R3,#+1243
        MOV      R2,R4
        MOVS     R1,#+4
        MOV      R0,R6
          CFI FunCall mbedtls_debug_print_buf
        BL       mbedtls_debug_print_buf
// 1244 
// 1245     /*
// 1246      * SSLv3/TLS Client Hello
// 1247      *
// 1248      * Record layer:
// 1249      *     0  .   0   message type
// 1250      *     1  .   2   protocol version
// 1251      *     3  .   11  DTLS: epoch + record sequence number
// 1252      *     3  .   4   message length
// 1253      */
// 1254     MBEDTLS_SSL_DEBUG_MSG( 3, ( "client hello v3, message type: %d",
// 1255                    buf[0] ) );
        LDRB     R0,[R5, #+0]
        STR      R0,[SP, #+4]
        LDR.W    R0,??ssl_parse_client_hello_0+0xC
        STR      R0,[SP, #+0]
        MOVW     R3,#+1255
        MOV      R2,R4
        MOVS     R1,#+3
        MOV      R0,R6
          CFI FunCall mbedtls_debug_print_msg
        BL       mbedtls_debug_print_msg
// 1256 
// 1257     if( buf[0] != MBEDTLS_SSL_MSG_HANDSHAKE )
        LDRB     R0,[R5, #+0]
        CMP      R0,#+22
        BNE.N    ??ssl_parse_client_hello_3
// 1258     {
// 1259         MBEDTLS_SSL_DEBUG_MSG( 1, ( "bad client hello message" ) );
// 1260         return( MBEDTLS_ERR_SSL_BAD_HS_CLIENT_HELLO );
// 1261     }
// 1262 
// 1263     MBEDTLS_SSL_DEBUG_MSG( 3, ( "client hello v3, message len.: %d",
// 1264                    ( ssl->in_len[0] << 8 ) | ssl->in_len[1] ) );
        LDR      R0,[R6, #+104]
        LDRB     R0,[R0, #+0]
        LDR      R1,[R6, #+104]
        LDRB     R1,[R1, #+1]
        ORR      R1,R1,R0, LSL #+8
        STR      R1,[SP, #+4]
        LDR.W    R0,??ssl_parse_client_hello_0+0x10
        STR      R0,[SP, #+0]
        MOV      R3,#+1264
        MOV      R2,R4
        MOVS     R1,#+3
        MOV      R0,R6
          CFI FunCall mbedtls_debug_print_msg
        BL       mbedtls_debug_print_msg
// 1265 
// 1266     MBEDTLS_SSL_DEBUG_MSG( 3, ( "client hello v3, protocol version: [%d:%d]",
// 1267                    buf[1], buf[2] ) );
        LDRB     R0,[R5, #+2]
        STR      R0,[SP, #+8]
        LDRB     R0,[R5, #+1]
        STR      R0,[SP, #+4]
        LDR.W    R0,??ssl_parse_client_hello_0+0x14
        STR      R0,[SP, #+0]
        MOVW     R3,#+1267
        MOV      R2,R4
        MOVS     R1,#+3
        MOV      R0,R6
          CFI FunCall mbedtls_debug_print_msg
        BL       mbedtls_debug_print_msg
// 1268 
// 1269     mbedtls_ssl_read_version( &major, &minor, ssl->conf->transport, buf + 1 );
        ADDS     R3,R5,#+1
        LDR      R0,[R6, #+0]
        LDR      R0,[R0, #+204]
        UBFX     R2,R0,#+1,#+1
        ADD      R1,SP,#+28
        ADD      R0,SP,#+24
          CFI FunCall mbedtls_ssl_read_version
        BL       mbedtls_ssl_read_version
// 1270 
// 1271     /* According to RFC 5246 Appendix E.1, the version here is typically
// 1272      * "{03,00}, the lowest version number supported by the client, [or] the
// 1273      * value of ClientHello.client_version", so the only meaningful check here
// 1274      * is the major version shouldn't be less than 3 */
// 1275     if( major < MBEDTLS_SSL_MAJOR_VERSION_3 )
        LDR      R0,[SP, #+24]
        CMP      R0,#+3
        BLT.N    ??ssl_parse_client_hello_4
// 1276     {
// 1277         MBEDTLS_SSL_DEBUG_MSG( 1, ( "bad client hello message" ) );
// 1278         return( MBEDTLS_ERR_SSL_BAD_HS_CLIENT_HELLO );
// 1279     }
// 1280 
// 1281     /* For DTLS if this is the initial handshake, remember the client sequence
// 1282      * number to use it in our next message (RFC 6347 4.2.1) */
// 1283 #if defined(MBEDTLS_SSL_PROTO_DTLS)
// 1284     if( ssl->conf->transport == MBEDTLS_SSL_TRANSPORT_DATAGRAM
// 1285 #if defined(MBEDTLS_SSL_RENEGOTIATION)
// 1286         && ssl->renego_status == MBEDTLS_SSL_INITIAL_HANDSHAKE
// 1287 #endif
// 1288         )
        LDR      R0,[R6, #+0]
        LDR      R0,[R0, #+204]
        UBFX     R0,R0,#+1,#+1
        CMP      R0,#+0
        BEQ.N    ??ssl_parse_client_hello_5
        LDR      R0,[R6, #+8]
        CMP      R0,#+0
        BNE.N    ??ssl_parse_client_hello_5
// 1289     {
// 1290         /* Epoch should be 0 for initial handshakes */
// 1291         if( ssl->in_ctr[0] != 0 || ssl->in_ctr[1] != 0 )
        LDR      R0,[R6, #+96]
        LDRB     R0,[R0, #+0]
        CMP      R0,#+0
        BNE.W    ??ssl_parse_client_hello_6
        LDR      R0,[R6, #+96]
        LDRB     R0,[R0, #+1]
        CMP      R0,#+0
        BNE.W    ??ssl_parse_client_hello_6
// 1292         {
// 1293             MBEDTLS_SSL_DEBUG_MSG( 1, ( "bad client hello message" ) );
// 1294             return( MBEDTLS_ERR_SSL_BAD_HS_CLIENT_HELLO );
// 1295         }
// 1296 
// 1297         memcpy( ssl->cur_out_ctr + 2, ssl->in_ctr + 2, 6 );
        MOVS     R2,#+6
        LDR      R0,[R6, #+96]
        ADDS     R1,R0,#+2
        ADD      R0,R6,#+214
          CFI FunCall __aeabi_memcpy
        BL       __aeabi_memcpy
// 1298 
// 1299 #if defined(MBEDTLS_SSL_DTLS_ANTI_REPLAY)
// 1300         if( mbedtls_ssl_dtls_replay_check( ssl ) != 0 )
        MOV      R0,R6
          CFI FunCall mbedtls_ssl_dtls_replay_check
        BL       mbedtls_ssl_dtls_replay_check
        CMP      R0,#+0
        BEQ.N    ??ssl_parse_client_hello_7
// 1301         {
// 1302             MBEDTLS_SSL_DEBUG_MSG( 1, ( "replayed record, discarding" ) );
        LDR.W    R0,??DataTable16
        STR      R0,[SP, #+0]
        MOVW     R3,#+1302
        MOV      R2,R4
        MOVS     R1,#+1
        MOV      R0,R6
          CFI FunCall mbedtls_debug_print_msg
        BL       mbedtls_debug_print_msg
// 1303             ssl->next_record_offset = 0;
        MOVS     R0,#+0
        STR      R0,[R6, #+136]
// 1304             ssl->in_left = 0;
        STR      R0,[R6, #+128]
// 1305             goto read_record_header;
// 1306         }
??ssl_parse_client_hello_1:
        LDR      R0,[R6, #+8]
        CMP      R0,#+0
        BNE.N    ??ssl_parse_client_hello_2
        MOVS     R1,#+5
        MOV      R0,R6
          CFI FunCall mbedtls_ssl_fetch_input
        BL       mbedtls_ssl_fetch_input
        MOVS     R5,R0
        BEQ.W    ??ssl_parse_client_hello_2
        STR      R5,[SP, #+4]
        LDR.W    R0,??DataTable16_1
        STR      R0,[SP, #+0]
        MOVW     R3,#+1228
        MOV      R2,R4
        MOVS     R1,#+1
        MOV      R0,R6
          CFI FunCall mbedtls_debug_print_ret
        BL       mbedtls_debug_print_ret
        MOV      R0,R5
        B.W      ??ssl_parse_client_hello_8
??ssl_parse_client_hello_3:
        LDR.W    R0,??DataTable16_2
        STR      R0,[SP, #+0]
        MOVW     R3,#+1259
        MOV      R2,R4
        MOVS     R1,#+1
        MOV      R0,R6
          CFI FunCall mbedtls_debug_print_msg
        BL       mbedtls_debug_print_msg
        LDR.W    R0,??DataTable16_3  ;; 0xffff8700
        B.W      ??ssl_parse_client_hello_8
??ssl_parse_client_hello_4:
        LDR.W    R0,??DataTable16_2
        STR      R0,[SP, #+0]
        MOVW     R3,#+1277
        MOV      R2,R4
        MOVS     R1,#+1
        MOV      R0,R6
          CFI FunCall mbedtls_debug_print_msg
        BL       mbedtls_debug_print_msg
        LDR.W    R0,??DataTable16_3  ;; 0xffff8700
        B.W      ??ssl_parse_client_hello_8
// 1307 
// 1308         /* No MAC to check yet, so we can update right now */
// 1309         mbedtls_ssl_dtls_replay_update( ssl );
??ssl_parse_client_hello_7:
        MOV      R0,R6
          CFI FunCall mbedtls_ssl_dtls_replay_update
        BL       mbedtls_ssl_dtls_replay_update
// 1310 #endif
// 1311     }
// 1312 #endif /* MBEDTLS_SSL_PROTO_DTLS */
// 1313 
// 1314     msg_len = ( ssl->in_len[0] << 8 ) | ssl->in_len[1];
??ssl_parse_client_hello_5:
        LDR      R0,[R6, #+104]
        LDRB     R0,[R0, #+0]
        LDR      R1,[R6, #+104]
        LDRB     R7,[R1, #+1]
        ORR      R7,R7,R0, LSL #+8
// 1315 
// 1316 #if defined(MBEDTLS_SSL_RENEGOTIATION)
// 1317     if( ssl->renego_status != MBEDTLS_SSL_INITIAL_HANDSHAKE )
        LDR      R0,[R6, #+8]
        CMP      R0,#+0
        BEQ.N    ??ssl_parse_client_hello_9
// 1318     {
// 1319         /* Set by mbedtls_ssl_read_record() */
// 1320         msg_len = ssl->in_hslen;
        LDR      R7,[R6, #+160]
        B.N      ??ssl_parse_client_hello_10
// 1321     }
// 1322     else
// 1323 #endif
// 1324     {
// 1325         if( msg_len > MBEDTLS_SSL_IN_CONTENT_LEN )
??ssl_parse_client_hello_9:
        MOVW     R0,#+10241
        CMP      R7,R0
        BCC.N    ??ssl_parse_client_hello_11
// 1326         {
// 1327             MBEDTLS_SSL_DEBUG_MSG( 1, ( "bad client hello message" ) );
        LDR.W    R0,??DataTable16_2
        STR      R0,[SP, #+0]
        MOVW     R3,#+1327
        MOV      R2,R4
        MOVS     R1,#+1
        MOV      R0,R6
          CFI FunCall mbedtls_debug_print_msg
        BL       mbedtls_debug_print_msg
// 1328             return( MBEDTLS_ERR_SSL_BAD_HS_CLIENT_HELLO );
        LDR.W    R0,??DataTable16_3  ;; 0xffff8700
        B.W      ??ssl_parse_client_hello_8
// 1329         }
// 1330 
// 1331         if( ( ret = mbedtls_ssl_fetch_input( ssl,
// 1332                        mbedtls_ssl_hdr_len( ssl ) + msg_len ) ) != 0 )
??ssl_parse_client_hello_11:
        MOV      R0,R6
          CFI FunCall mbedtls_ssl_hdr_len
        BL       mbedtls_ssl_hdr_len
        MOV      R1,R0
        ADDS     R1,R7,R1
        MOV      R0,R6
          CFI FunCall mbedtls_ssl_fetch_input
        BL       mbedtls_ssl_fetch_input
        MOVS     R5,R0
        BEQ.N    ??ssl_parse_client_hello_12
// 1333         {
// 1334             MBEDTLS_SSL_DEBUG_RET( 1, "mbedtls_ssl_fetch_input", ret );
        STR      R5,[SP, #+4]
        LDR.W    R0,??DataTable16_1
        STR      R0,[SP, #+0]
        MOVW     R3,#+1334
        MOV      R2,R4
        MOVS     R1,#+1
        MOV      R0,R6
          CFI FunCall mbedtls_debug_print_ret
        BL       mbedtls_debug_print_ret
// 1335             return( ret );
        MOV      R0,R5
        B.W      ??ssl_parse_client_hello_8
// 1336         }
// 1337 
// 1338     /* Done reading this record, get ready for the next one */
// 1339 #if defined(MBEDTLS_SSL_PROTO_DTLS)
// 1340         if( ssl->conf->transport == MBEDTLS_SSL_TRANSPORT_DATAGRAM )
??ssl_parse_client_hello_12:
        LDR      R0,[R6, #+0]
        LDR      R0,[R0, #+204]
        UBFX     R0,R0,#+1,#+1
        CMP      R0,#+0
        BEQ.N    ??ssl_parse_client_hello_13
// 1341             ssl->next_record_offset = msg_len + mbedtls_ssl_hdr_len( ssl );
        MOV      R0,R6
          CFI FunCall mbedtls_ssl_hdr_len
        BL       mbedtls_ssl_hdr_len
        ADDS     R0,R0,R7
        STR      R0,[R6, #+136]
        B.N      ??ssl_parse_client_hello_10
// 1342         else
// 1343 #endif
// 1344             ssl->in_left = 0;
??ssl_parse_client_hello_13:
        MOVS     R0,#+0
        STR      R0,[R6, #+128]
// 1345     }
// 1346 
// 1347     buf = ssl->in_msg;
??ssl_parse_client_hello_10:
        LDR      R5,[R6, #+112]
// 1348 
// 1349     MBEDTLS_SSL_DEBUG_BUF( 4, "record contents", buf, msg_len );
        STR      R7,[SP, #+8]
        STR      R5,[SP, #+4]
        LDR.W    R0,??DataTable16_4
        STR      R0,[SP, #+0]
        MOVW     R3,#+1349
        MOV      R2,R4
        MOVS     R1,#+4
        MOV      R0,R6
          CFI FunCall mbedtls_debug_print_buf
        BL       mbedtls_debug_print_buf
// 1350 
// 1351     ssl->handshake->update_checksum( ssl, buf, msg_len );
        MOV      R2,R7
        MOV      R1,R5
        MOV      R0,R6
        LDR      R3,[R6, #+60]
        LDR      R3,[R3, #+1096]
          CFI FunCall
        BLX      R3
// 1352 
// 1353     /*
// 1354      * Handshake layer:
// 1355      *     0  .   0   handshake type
// 1356      *     1  .   3   handshake length
// 1357      *     4  .   5   DTLS only: message seqence number
// 1358      *     6  .   8   DTLS only: fragment offset
// 1359      *     9  .  11   DTLS only: fragment length
// 1360      */
// 1361     if( msg_len < mbedtls_ssl_hs_hdr_len( ssl ) )
        MOV      R0,R6
          CFI FunCall mbedtls_ssl_hs_hdr_len
        BL       mbedtls_ssl_hs_hdr_len
        CMP      R7,R0
        BCS.N    ??ssl_parse_client_hello_14
// 1362     {
// 1363         MBEDTLS_SSL_DEBUG_MSG( 1, ( "bad client hello message" ) );
        LDR.W    R0,??DataTable16_2
        STR      R0,[SP, #+0]
        MOVW     R3,#+1363
        MOV      R2,R4
        MOVS     R1,#+1
        MOV      R0,R6
          CFI FunCall mbedtls_debug_print_msg
        BL       mbedtls_debug_print_msg
// 1364         return( MBEDTLS_ERR_SSL_BAD_HS_CLIENT_HELLO );
        LDR.W    R0,??DataTable16_3  ;; 0xffff8700
        B.W      ??ssl_parse_client_hello_8
// 1365     }
// 1366 
// 1367     MBEDTLS_SSL_DEBUG_MSG( 3, ( "client hello v3, handshake type: %d", buf[0] ) );
??ssl_parse_client_hello_14:
        LDRB     R0,[R5, #+0]
        STR      R0,[SP, #+4]
        LDR.W    R0,??DataTable16_5
        STR      R0,[SP, #+0]
        MOVW     R3,#+1367
        MOV      R2,R4
        MOVS     R1,#+3
        MOV      R0,R6
          CFI FunCall mbedtls_debug_print_msg
        BL       mbedtls_debug_print_msg
// 1368 
// 1369     if( buf[0] != MBEDTLS_SSL_HS_CLIENT_HELLO )
        LDRB     R0,[R5, #+0]
        CMP      R0,#+1
        BEQ.N    ??ssl_parse_client_hello_15
// 1370     {
// 1371         MBEDTLS_SSL_DEBUG_MSG( 1, ( "bad client hello message" ) );
        LDR.W    R0,??DataTable16_2
        STR      R0,[SP, #+0]
        MOVW     R3,#+1371
        MOV      R2,R4
        MOVS     R1,#+1
        MOV      R0,R6
          CFI FunCall mbedtls_debug_print_msg
        BL       mbedtls_debug_print_msg
// 1372         return( MBEDTLS_ERR_SSL_BAD_HS_CLIENT_HELLO );
        LDR.W    R0,??DataTable16_3  ;; 0xffff8700
        B.W      ??ssl_parse_client_hello_8
// 1373     }
// 1374 
// 1375     MBEDTLS_SSL_DEBUG_MSG( 3, ( "client hello v3, handshake len.: %d",
// 1376                    ( buf[1] << 16 ) | ( buf[2] << 8 ) | buf[3] ) );
??ssl_parse_client_hello_15:
        LDRB     R0,[R5, #+1]
        LDRB     R1,[R5, #+2]
        LSLS     R1,R1,#+8
        ORR      R1,R1,R0, LSL #+16
        LDRB     R0,[R5, #+3]
        ORRS     R1,R0,R1
        STR      R1,[SP, #+4]
        LDR.W    R0,??DataTable17
        STR      R0,[SP, #+0]
        MOV      R3,#+1376
        MOV      R2,R4
        MOVS     R1,#+3
        MOV      R0,R6
          CFI FunCall mbedtls_debug_print_msg
        BL       mbedtls_debug_print_msg
// 1377 
// 1378     /* We don't support fragmentation of ClientHello (yet?) */
// 1379     if( buf[1] != 0 ||
// 1380         msg_len != mbedtls_ssl_hs_hdr_len( ssl ) + ( ( buf[2] << 8 ) | buf[3] ) )
        LDRB     R0,[R5, #+1]
        CMP      R0,#+0
        BNE.N    ??ssl_parse_client_hello_16
        MOV      R0,R6
          CFI FunCall mbedtls_ssl_hs_hdr_len
        BL       mbedtls_ssl_hs_hdr_len
        LDRB     R1,[R5, #+2]
        LDRB     R2,[R5, #+3]
        ORR      R2,R2,R1, LSL #+8
        ADDS     R0,R2,R0
        CMP      R7,R0
        BEQ.N    ??ssl_parse_client_hello_17
// 1381     {
// 1382         MBEDTLS_SSL_DEBUG_MSG( 1, ( "bad client hello message" ) );
??ssl_parse_client_hello_16:
        LDR.W    R0,??DataTable16_2
        STR      R0,[SP, #+0]
        MOVW     R3,#+1382
        MOV      R2,R4
        MOVS     R1,#+1
        MOV      R0,R6
          CFI FunCall mbedtls_debug_print_msg
        BL       mbedtls_debug_print_msg
// 1383         return( MBEDTLS_ERR_SSL_BAD_HS_CLIENT_HELLO );
        LDR.W    R0,??DataTable16_3  ;; 0xffff8700
        B.W      ??ssl_parse_client_hello_8
// 1384     }
// 1385 
// 1386 #if defined(MBEDTLS_SSL_PROTO_DTLS)
// 1387     if( ssl->conf->transport == MBEDTLS_SSL_TRANSPORT_DATAGRAM )
??ssl_parse_client_hello_17:
        LDR      R0,[R6, #+0]
        LDR      R0,[R0, #+204]
        UBFX     R0,R0,#+1,#+1
        CMP      R0,#+0
        BEQ.N    ??ssl_parse_client_hello_18
// 1388     {
// 1389         /*
// 1390          * Copy the client's handshake message_seq on initial handshakes,
// 1391          * check sequence number on renego.
// 1392          */
// 1393 #if defined(MBEDTLS_SSL_RENEGOTIATION)
// 1394         if( ssl->renego_status == MBEDTLS_SSL_RENEGOTIATION_IN_PROGRESS )
        LDR      R0,[R6, #+8]
        CMP      R0,#+1
        LDR      R0,[R6, #+112]
        LDRB     R1,[R0, #+4]
        LDRB     R0,[R0, #+5]
        ORR      R0,R0,R1, LSL #+8
        LDR      R1,[R6, #+60]
        BNE.N    ??ssl_parse_client_hello_19
// 1395         {
// 1396             /* This couldn't be done in ssl_prepare_handshake_record() */
// 1397             unsigned int cli_msg_seq = ( ssl->in_msg[4] << 8 ) |
// 1398                                          ssl->in_msg[5];
// 1399 
// 1400             if( cli_msg_seq != ssl->handshake->in_msg_seq )
        LDR      R1,[R1, #+472]
        CMP      R0,R1
        BEQ.N    ??ssl_parse_client_hello_20
// 1401             {
// 1402                 MBEDTLS_SSL_DEBUG_MSG( 1, ( "bad client hello message_seq: "
// 1403                                     "%d (expected %d)", cli_msg_seq,
// 1404                                     ssl->handshake->in_msg_seq ) );
        LDR      R1,[R6, #+60]
        LDR      R1,[R1, #+472]
        STR      R1,[SP, #+8]
        STR      R0,[SP, #+4]
        LDR.W    R0,??DataTable19
        STR      R0,[SP, #+0]
        MOVW     R3,#+1404
        MOV      R2,R4
        MOVS     R1,#+1
        MOV      R0,R6
          CFI FunCall mbedtls_debug_print_msg
        BL       mbedtls_debug_print_msg
// 1405                 return( MBEDTLS_ERR_SSL_BAD_HS_CLIENT_HELLO );
        LDR.W    R0,??DataTable16_3  ;; 0xffff8700
        B.W      ??ssl_parse_client_hello_8
// 1406             }
// 1407 
// 1408             ssl->handshake->in_msg_seq++;
??ssl_parse_client_hello_20:
        MOV      R0,R1
        ADDS     R0,R0,#+1
        LDR      R1,[R6, #+60]
        STR      R0,[R1, #+472]
        B.N      ??ssl_parse_client_hello_21
// 1409         }
// 1410         else
// 1411 #endif
// 1412         {
// 1413             unsigned int cli_msg_seq = ( ssl->in_msg[4] << 8 ) |
// 1414                                          ssl->in_msg[5];
// 1415             ssl->handshake->out_msg_seq = cli_msg_seq;
??ssl_parse_client_hello_19:
        STR      R0,[R1, #+468]
// 1416             ssl->handshake->in_msg_seq  = cli_msg_seq + 1;
        ADDS     R0,R0,#+1
        LDR      R1,[R6, #+60]
        STR      R0,[R1, #+472]
// 1417         }
// 1418 
// 1419         /*
// 1420          * For now we don't support fragmentation, so make sure
// 1421          * fragment_offset == 0 and fragment_length == length
// 1422          */
// 1423         if( ssl->in_msg[6] != 0 || ssl->in_msg[7] != 0 || ssl->in_msg[8] != 0 ||
// 1424             memcmp( ssl->in_msg + 1, ssl->in_msg + 9, 3 ) != 0 )
??ssl_parse_client_hello_21:
        LDR      R0,[R6, #+112]
        LDRB     R0,[R0, #+6]
        CMP      R0,#+0
        BNE.N    ??ssl_parse_client_hello_22
        LDR      R0,[R6, #+112]
        LDRB     R0,[R0, #+7]
        CMP      R0,#+0
        BNE.N    ??ssl_parse_client_hello_22
        LDR      R0,[R6, #+112]
        LDRB     R0,[R0, #+8]
        CMP      R0,#+0
        BNE.N    ??ssl_parse_client_hello_22
        MOVS     R2,#+3
        LDR      R0,[R6, #+112]
        ADD      R1,R0,#+9
        ADDS     R0,R0,#+1
          CFI FunCall memcmp
        BL       memcmp
        CMP      R0,#+0
        BEQ.N    ??ssl_parse_client_hello_18
// 1425         {
// 1426             MBEDTLS_SSL_DEBUG_MSG( 1, ( "ClientHello fragmentation not supported" ) );
??ssl_parse_client_hello_22:
        LDR.W    R0,??DataTable19_1
        STR      R0,[SP, #+0]
        MOVW     R3,#+1426
        MOV      R2,R4
        MOVS     R1,#+1
        MOV      R0,R6
          CFI FunCall mbedtls_debug_print_msg
        BL       mbedtls_debug_print_msg
// 1427             return( MBEDTLS_ERR_SSL_FEATURE_UNAVAILABLE );
        LDR.W    R0,??DataTable20  ;; 0xffff8f80
        B.W      ??ssl_parse_client_hello_8
// 1428         }
// 1429     }
// 1430 #endif /* MBEDTLS_SSL_PROTO_DTLS */
// 1431 
// 1432     buf += mbedtls_ssl_hs_hdr_len( ssl );
??ssl_parse_client_hello_18:
        MOV      R0,R6
          CFI FunCall mbedtls_ssl_hs_hdr_len
        BL       mbedtls_ssl_hs_hdr_len
        ADD      R0,R5,R0
        STR      R0,[SP, #+12]
// 1433     msg_len -= mbedtls_ssl_hs_hdr_len( ssl );
        MOV      R0,R6
          CFI FunCall mbedtls_ssl_hs_hdr_len
        BL       mbedtls_ssl_hs_hdr_len
        SUBS     R7,R7,R0
// 1434 
// 1435     /*
// 1436      * ClientHello layer:
// 1437      *     0  .   1   protocol version
// 1438      *     2  .  33   random bytes (starting with 4 bytes of Unix time)
// 1439      *    34  .  35   session id length (1 byte)
// 1440      *    35  . 34+x  session id
// 1441      *   35+x . 35+x  DTLS only: cookie length (1 byte)
// 1442      *   36+x .  ..   DTLS only: cookie
// 1443      *    ..  .  ..   ciphersuite list length (2 bytes)
// 1444      *    ..  .  ..   ciphersuite list
// 1445      *    ..  .  ..   compression alg. list length (1 byte)
// 1446      *    ..  .  ..   compression alg. list
// 1447      *    ..  .  ..   extensions length (2 bytes, optional)
// 1448      *    ..  .  ..   extensions (optional)
// 1449      */
// 1450 
// 1451     /*
// 1452      * Minimal length (with everything empty and extensions ommitted) is
// 1453      * 2 + 32 + 1 + 2 + 1 = 38 bytes. Check that first, so that we can
// 1454      * read at least up to session id length without worrying.
// 1455      */
// 1456     if( msg_len < 38 )
        CMP      R7,#+38
        BCS.N    ??ssl_parse_client_hello_23
// 1457     {
// 1458         MBEDTLS_SSL_DEBUG_MSG( 1, ( "bad client hello message" ) );
        LDR.W    R0,??DataTable16_2
        STR      R0,[SP, #+0]
        MOVW     R3,#+1458
        MOV      R2,R4
        MOVS     R1,#+1
        MOV      R0,R6
          CFI FunCall mbedtls_debug_print_msg
        BL       mbedtls_debug_print_msg
// 1459         return( MBEDTLS_ERR_SSL_BAD_HS_CLIENT_HELLO );
        LDR.W    R0,??DataTable16_3  ;; 0xffff8700
        B.W      ??ssl_parse_client_hello_8
// 1460     }
// 1461 
// 1462     /*
// 1463      * Check and save the protocol version
// 1464      */
// 1465     MBEDTLS_SSL_DEBUG_BUF( 3, "client hello, version", buf, 2 );
??ssl_parse_client_hello_23:
        MOVS     R0,#+2
        STR      R0,[SP, #+8]
        LDR      R0,[SP, #+12]
        STR      R0,[SP, #+4]
        LDR.W    R0,??DataTable20_1
        STR      R0,[SP, #+0]
        MOVW     R3,#+1465
        MOV      R2,R4
        MOVS     R1,#+3
        MOV      R0,R6
          CFI FunCall mbedtls_debug_print_buf
        BL       mbedtls_debug_print_buf
// 1466 
// 1467     mbedtls_ssl_read_version( &ssl->major_ver, &ssl->minor_ver,
// 1468                       ssl->conf->transport, buf );
        LDR      R3,[SP, #+12]
        LDR      R0,[R6, #+0]
        LDR      R0,[R0, #+204]
        UBFX     R2,R0,#+1,#+1
        ADD      R1,R6,#+20
        ADD      R0,R6,#+16
          CFI FunCall mbedtls_ssl_read_version
        BL       mbedtls_ssl_read_version
// 1469 
// 1470     ssl->handshake->max_major_ver = ssl->major_ver;
        LDR      R0,[R6, #+16]
        LDR      R1,[R6, #+60]
        STR      R0,[R1, #+1732]
// 1471     ssl->handshake->max_minor_ver = ssl->minor_ver;
        LDR      R0,[R6, #+20]
        LDR      R1,[R6, #+60]
        STR      R0,[R1, #+1736]
// 1472 
// 1473     if( ssl->major_ver < ssl->conf->min_major_ver ||
// 1474         ssl->minor_ver < ssl->conf->min_minor_ver )
        LDR      R0,[R6, #+16]
        LDR      R1,[R6, #+0]
        LDRB     R1,[R1, #+202]
        CMP      R0,R1
        BLT.N    ??ssl_parse_client_hello_24
        LDR      R0,[R6, #+20]
        LDR      R1,[R6, #+0]
        LDRB     R1,[R1, #+203]
        CMP      R0,R1
        BGE.N    ??ssl_parse_client_hello_25
// 1475     {
// 1476         MBEDTLS_SSL_DEBUG_MSG( 1, ( "client only supports ssl smaller than minimum"
// 1477                             " [%d:%d] < [%d:%d]",
// 1478                             ssl->major_ver, ssl->minor_ver,
// 1479                             ssl->conf->min_major_ver, ssl->conf->min_minor_ver ) );
??ssl_parse_client_hello_24:
        LDR      R0,[R6, #+0]
        LDRB     R0,[R0, #+203]
        STR      R0,[SP, #+16]
        LDR      R0,[R6, #+0]
        LDRB     R0,[R0, #+202]
        STR      R0,[SP, #+12]
        LDR      R0,[R6, #+20]
        STR      R0,[SP, #+8]
        LDR      R0,[R6, #+16]
        STR      R0,[SP, #+4]
        LDR.W    R0,??DataTable22
        STR      R0,[SP, #+0]
        MOVW     R3,#+1479
        MOV      R2,R4
        MOVS     R1,#+1
        MOV      R0,R6
          CFI FunCall mbedtls_debug_print_msg
        BL       mbedtls_debug_print_msg
// 1480         mbedtls_ssl_send_alert_message( ssl, MBEDTLS_SSL_ALERT_LEVEL_FATAL,
// 1481                                      MBEDTLS_SSL_ALERT_MSG_PROTOCOL_VERSION );
        MOVS     R2,#+70
        MOVS     R1,#+2
        MOV      R0,R6
          CFI FunCall mbedtls_ssl_send_alert_message
        BL       mbedtls_ssl_send_alert_message
// 1482         return( MBEDTLS_ERR_SSL_BAD_HS_PROTOCOL_VERSION );
        LDR.W    R0,??DataTable22_1  ;; 0xffff9180
        B.W      ??ssl_parse_client_hello_8
// 1483     }
// 1484 
// 1485     if( ssl->major_ver > ssl->conf->max_major_ver )
??ssl_parse_client_hello_25:
        LDR      R0,[R6, #+0]
        LDRB     R0,[R0, #+200]
        LDR      R1,[R6, #+16]
        CMP      R0,R1
        LDR      R0,[R6, #+0]
        BGE.N    ??ssl_parse_client_hello_26
// 1486     {
// 1487         ssl->major_ver = ssl->conf->max_major_ver;
        LDRB     R0,[R0, #+200]
        STR      R0,[R6, #+16]
// 1488         ssl->minor_ver = ssl->conf->max_minor_ver;
        LDR      R0,[R6, #+0]
        LDRB     R0,[R0, #+201]
        STR      R0,[R6, #+20]
        B.N      ??ssl_parse_client_hello_27
// 1489     }
// 1490     else if( ssl->minor_ver > ssl->conf->max_minor_ver )
??ssl_parse_client_hello_26:
        LDRB     R0,[R0, #+201]
        LDR      R1,[R6, #+20]
        CMP      R0,R1
        BGE.N    ??ssl_parse_client_hello_27
// 1491         ssl->minor_ver = ssl->conf->max_minor_ver;
        LDR      R0,[R6, #+0]
        LDRB     R0,[R0, #+201]
        STR      R0,[R6, #+20]
// 1492 
// 1493     /*
// 1494      * Save client random (inc. Unix time)
// 1495      */
// 1496     MBEDTLS_SSL_DEBUG_BUF( 3, "client hello, random bytes", buf + 2, 32 );
??ssl_parse_client_hello_27:
        MOVS     R0,#+32
        STR      R0,[SP, #+8]
        LDR      R0,[SP, #+12]
        ADDS     R0,R0,#+2
        STR      R0,[SP, #+4]
        LDR.W    R0,??DataTable22_2
        STR      R0,[SP, #+0]
        MOV      R3,#+1496
        MOV      R2,R4
        MOVS     R1,#+3
        MOV      R0,R6
          CFI FunCall mbedtls_debug_print_buf
        BL       mbedtls_debug_print_buf
// 1497 
// 1498     memcpy( ssl->handshake->randbytes, buf + 2, 32 );
        MOVS     R2,#+32
        LDR      R0,[SP, #+12]
        ADDS     R1,R0,#+2
        LDR      R0,[R6, #+60]
        ADDW     R0,R0,#+1116
          CFI FunCall __aeabi_memcpy
        BL       __aeabi_memcpy
// 1499 
// 1500     /*
// 1501      * Check the session ID length and save session ID
// 1502      */
// 1503     sess_len = buf[34];
        LDR      R0,[SP, #+12]
        LDRB     R8,[R0, #+34]
// 1504 
// 1505     if( sess_len > sizeof( ssl->session_negotiate->id ) ||
// 1506         sess_len + 34 + 2 > msg_len ) /* 2 for cipherlist length field */
        CMP      R8,#+33
        BCS.N    ??ssl_parse_client_hello_28
        ADD      R0,R8,#+36
        CMP      R7,R0
        BCS.N    ??ssl_parse_client_hello_29
// 1507     {
// 1508         MBEDTLS_SSL_DEBUG_MSG( 1, ( "bad client hello message" ) );
??ssl_parse_client_hello_28:
        LDR.W    R0,??DataTable16_2
        STR      R0,[SP, #+0]
        MOVW     R3,#+1508
        MOV      R2,R4
        MOVS     R1,#+1
        MOV      R0,R6
          CFI FunCall mbedtls_debug_print_msg
        BL       mbedtls_debug_print_msg
// 1509         mbedtls_ssl_send_alert_message( ssl, MBEDTLS_SSL_ALERT_LEVEL_FATAL,
// 1510                                         MBEDTLS_SSL_ALERT_MSG_DECODE_ERROR );
        MOVS     R2,#+50
        MOVS     R1,#+2
        MOV      R0,R6
          CFI FunCall mbedtls_ssl_send_alert_message
        BL       mbedtls_ssl_send_alert_message
// 1511         return( MBEDTLS_ERR_SSL_BAD_HS_CLIENT_HELLO );
        LDR.W    R0,??DataTable16_3  ;; 0xffff8700
        B.N      ??ssl_parse_client_hello_8
// 1512     }
// 1513 
// 1514     MBEDTLS_SSL_DEBUG_BUF( 3, "client hello, session id", buf + 35, sess_len );
??ssl_parse_client_hello_29:
        STR      R8,[SP, #+8]
        LDR      R0,[SP, #+12]
        ADDS     R0,R0,#+35
        STR      R0,[SP, #+4]
        LDR.W    R0,??DataTable23
        STR      R0,[SP, #+0]
        MOVW     R3,#+1514
        MOV      R2,R4
        MOVS     R1,#+3
        MOV      R0,R6
          CFI FunCall mbedtls_debug_print_buf
        BL       mbedtls_debug_print_buf
// 1515 
// 1516     ssl->session_negotiate->id_len = sess_len;
        LDR      R0,[R6, #+56]
        STR      R8,[R0, #+8]
// 1517     memset( ssl->session_negotiate->id, 0,
// 1518             sizeof( ssl->session_negotiate->id ) );
        MOVS     R2,#+0
        MOVS     R1,#+32
        LDR      R0,[R6, #+56]
        ADDS     R0,R0,#+12
          CFI FunCall __aeabi_memset4
        BL       __aeabi_memset4
// 1519     memcpy( ssl->session_negotiate->id, buf + 35,
// 1520             ssl->session_negotiate->id_len );
        LDR      R0,[R6, #+56]
        LDR      R2,[R0, #+8]
        LDR      R0,[SP, #+12]
        ADD      R1,R0,#+35
        LDR      R0,[R6, #+56]
        ADDS     R0,R0,#+12
          CFI FunCall __aeabi_memcpy
        BL       __aeabi_memcpy
// 1521 
// 1522     /*
// 1523      * Check the cookie length and content
// 1524      */
// 1525 #if defined(MBEDTLS_SSL_PROTO_DTLS)
// 1526     if( ssl->conf->transport == MBEDTLS_SSL_TRANSPORT_DATAGRAM )
        LDR      R0,[R6, #+0]
        LDR      R0,[R0, #+204]
        UBFX     R0,R0,#+1,#+1
        CMP      R0,#+0
        ADD      R8,R8,#+35
        BEQ.W    ??ssl_parse_client_hello_30
// 1527     {
// 1528         cookie_offset = 35 + sess_len;
// 1529         cookie_len = buf[cookie_offset];
        LDR      R0,[SP, #+12]
        LDRB     R5,[R0, R8]
// 1530 
// 1531         if( cookie_offset + 1 + cookie_len + 2 > msg_len )
        ADD      R0,R5,R8
        ADDS     R0,R0,#+3
        CMP      R7,R0
        BCS.N    ??ssl_parse_client_hello_31
// 1532         {
// 1533             MBEDTLS_SSL_DEBUG_MSG( 1, ( "bad client hello message" ) );
        LDR.W    R0,??DataTable16_2
        STR      R0,[SP, #+0]
        MOVW     R3,#+1533
        MOV      R2,R4
        MOVS     R1,#+1
        MOV      R0,R6
          CFI FunCall mbedtls_debug_print_msg
        BL       mbedtls_debug_print_msg
// 1534             mbedtls_ssl_send_alert_message( ssl, MBEDTLS_SSL_ALERT_LEVEL_FATAL,
// 1535                                             MBEDTLS_SSL_ALERT_MSG_PROTOCOL_VERSION );
        MOVS     R2,#+70
        MOVS     R1,#+2
        MOV      R0,R6
          CFI FunCall mbedtls_ssl_send_alert_message
        BL       mbedtls_ssl_send_alert_message
// 1536             return( MBEDTLS_ERR_SSL_BAD_HS_CLIENT_HELLO );
        LDR.W    R0,??DataTable16_3  ;; 0xffff8700
        B.N      ??ssl_parse_client_hello_8
// 1537         }
// 1538 
// 1539         MBEDTLS_SSL_DEBUG_BUF( 3, "client hello, cookie",
// 1540                        buf + cookie_offset + 1, cookie_len );
??ssl_parse_client_hello_31:
        STR      R5,[SP, #+8]
        LDR      R0,[SP, #+12]
        ADD      R0,R0,R8
        ADDS     R0,R0,#+1
        STR      R0,[SP, #+4]
        LDR.W    R0,??DataTable23_1
        STR      R0,[SP, #+0]
        MOVW     R3,#+1540
        MOV      R2,R4
        MOVS     R1,#+3
        MOV      R0,R6
          CFI FunCall mbedtls_debug_print_buf
        BL       mbedtls_debug_print_buf
// 1541 
// 1542 #if defined(MBEDTLS_SSL_DTLS_HELLO_VERIFY)
// 1543         if( ssl->conf->f_cookie_check != NULL
// 1544 #if defined(MBEDTLS_SSL_RENEGOTIATION)
// 1545             && ssl->renego_status == MBEDTLS_SSL_INITIAL_HANDSHAKE
// 1546 #endif
// 1547             )
        LDR      R0,[R6, #+0]
        LDR      R0,[R0, #+72]
        CMP      R0,#+0
        BEQ.N    ??ssl_parse_client_hello_32
        LDR      R0,[R6, #+8]
        CMP      R0,#+0
        BNE.N    ??ssl_parse_client_hello_32
// 1548         {
// 1549             if( ssl->conf->f_cookie_check( ssl->conf->p_cookie,
// 1550                                      buf + cookie_offset + 1, cookie_len,
// 1551                                      ssl->cli_id, ssl->cli_id_len ) != 0 )
        LDR      R0,[R6, #+240]
        STR      R0,[SP, #+0]
        LDR      R3,[R6, #+236]
        MOV      R2,R5
        LDR      R0,[SP, #+12]
        ADD      R0,R0,R8
        ADDS     R1,R0,#+1
        LDR      R0,[R6, #+0]
        LDR      R0,[R0, #+76]
        LDR      R12,[R6, #+0]
        LDR      R12,[R12, #+72]
          CFI FunCall
        BLX      R12
        CMP      R0,#+0
        BEQ.N    ??ssl_parse_client_hello_33
// 1552             {
// 1553                 MBEDTLS_SSL_DEBUG_MSG( 2, ( "cookie verification failed" ) );
        LDR.W    R0,??DataTable23_2
        STR      R0,[SP, #+0]
        MOVW     R3,#+1553
        MOV      R2,R4
        MOVS     R1,#+2
        MOV      R0,R6
          CFI FunCall mbedtls_debug_print_msg
        BL       mbedtls_debug_print_msg
// 1554                 ssl->handshake->verify_cookie_len = 1;
        MOVS     R0,#+1
        LDR      R1,[R6, #+60]
        STRB     R0,[R1, #+480]
        B.N      ??ssl_parse_client_hello_34
// 1555             }
// 1556             else
// 1557             {
// 1558                 MBEDTLS_SSL_DEBUG_MSG( 2, ( "cookie verification passed" ) );
??ssl_parse_client_hello_33:
        LDR.W    R0,??DataTable23_3
        STR      R0,[SP, #+0]
        MOVW     R3,#+1558
        MOV      R2,R4
        MOVS     R1,#+2
        MOV      R0,R6
          CFI FunCall mbedtls_debug_print_msg
        BL       mbedtls_debug_print_msg
// 1559                 ssl->handshake->verify_cookie_len = 0;
        MOVS     R0,#+0
        LDR      R1,[R6, #+60]
        STRB     R0,[R1, #+480]
        B.N      ??ssl_parse_client_hello_34
// 1560             }
// 1561         }
// 1562         else
// 1563 #endif /* MBEDTLS_SSL_DTLS_HELLO_VERIFY */
// 1564         {
// 1565             /* We know we didn't send a cookie, so it should be empty */
// 1566             if( cookie_len != 0 )
??ssl_parse_client_hello_32:
        CMP      R5,#+0
        BEQ.N    ??ssl_parse_client_hello_35
// 1567             {
// 1568                 /* This may be an attacker's probe, so don't send an alert */
// 1569                 MBEDTLS_SSL_DEBUG_MSG( 1, ( "bad client hello message" ) );
        LDR.W    R0,??DataTable16_2
        STR      R0,[SP, #+0]
        MOVW     R3,#+1569
        MOV      R2,R4
        MOVS     R1,#+1
        MOV      R0,R6
          CFI FunCall mbedtls_debug_print_msg
        BL       mbedtls_debug_print_msg
// 1570                 return( MBEDTLS_ERR_SSL_BAD_HS_CLIENT_HELLO );
        LDR.W    R0,??DataTable16_3  ;; 0xffff8700
        B.N      ??ssl_parse_client_hello_8
// 1571             }
// 1572 
// 1573             MBEDTLS_SSL_DEBUG_MSG( 2, ( "cookie verification skipped" ) );
??ssl_parse_client_hello_35:
        LDR.W    R0,??DataTable24
        STR      R0,[SP, #+0]
        MOVW     R3,#+1573
        MOV      R2,R4
        MOVS     R1,#+2
        MOV      R0,R6
          CFI FunCall mbedtls_debug_print_msg
        BL       mbedtls_debug_print_msg
// 1574         }
// 1575 
// 1576     /*
// 1577      * Check the ciphersuitelist length (will be parsed later)
// 1578      */
// 1579         ciph_offset = cookie_offset + 1 + cookie_len;
??ssl_parse_client_hello_34:
        ADD      R8,R5,R8
        ADD      R8,R8,#+1
        STR      R8,[SP, #+16]
        B.N      ??ssl_parse_client_hello_36
// 1580     }
// 1581     else
// 1582 #endif /* MBEDTLS_SSL_PROTO_DTLS */
// 1583         ciph_offset = 35 + sess_len;
??ssl_parse_client_hello_30:
        STR      R8,[SP, #+16]
// 1584 
// 1585     ciph_len = ( buf[ciph_offset + 0] << 8 )
// 1586              | ( buf[ciph_offset + 1]      );
??ssl_parse_client_hello_36:
        LDR      R0,[SP, #+12]
        LDR      R1,[SP, #+16]
        LDRB     R0,[R0, R1]
        LDR      R1,[SP, #+12]
        LDR      R2,[SP, #+16]
        ADD      R1,R1,R2
        LDRB     R11,[R1, #+1]
        ORR      R11,R11,R0, LSL #+8
// 1587 
// 1588     if( ciph_len < 2 ||
// 1589         ciph_len + 2 + ciph_offset + 1 > msg_len || /* 1 for comp. alg. len */
// 1590         ( ciph_len % 2 ) != 0 )
        CMP      R11,#+2
        BCC.N    ??ssl_parse_client_hello_37
        MOV      R0,R2
        ADD      R0,R0,R11
        ADDS     R0,R0,#+3
        CMP      R7,R0
        BCC.N    ??ssl_parse_client_hello_37
        LSLS     R0,R11,#+31
        BPL.N    ??ssl_parse_client_hello_38
// 1591     {
// 1592         MBEDTLS_SSL_DEBUG_MSG( 1, ( "bad client hello message" ) );
??ssl_parse_client_hello_37:
        LDR.W    R0,??DataTable16_2
        STR      R0,[SP, #+0]
        MOV      R3,#+1592
        MOV      R2,R4
        MOVS     R1,#+1
        MOV      R0,R6
          CFI FunCall mbedtls_debug_print_msg
        BL       mbedtls_debug_print_msg
// 1593         mbedtls_ssl_send_alert_message( ssl, MBEDTLS_SSL_ALERT_LEVEL_FATAL,
// 1594                                         MBEDTLS_SSL_ALERT_MSG_DECODE_ERROR );
        MOVS     R2,#+50
        MOVS     R1,#+2
        MOV      R0,R6
          CFI FunCall mbedtls_ssl_send_alert_message
        BL       mbedtls_ssl_send_alert_message
// 1595         return( MBEDTLS_ERR_SSL_BAD_HS_CLIENT_HELLO );
        LDR.W    R0,??DataTable16_3  ;; 0xffff8700
        B.N      ??ssl_parse_client_hello_8
// 1596     }
// 1597 
// 1598     MBEDTLS_SSL_DEBUG_BUF( 3, "client hello, ciphersuitelist",
// 1599                    buf + ciph_offset + 2,  ciph_len );
??ssl_parse_client_hello_38:
        STR      R11,[SP, #+8]
        LDR      R0,[SP, #+12]
        LDR      R1,[SP, #+16]
        ADD      R0,R0,R1
        ADDS     R0,R0,#+2
        STR      R0,[SP, #+4]
        LDR.W    R0,??DataTable24_1
        STR      R0,[SP, #+0]
        MOVW     R3,#+1599
        MOV      R2,R4
        MOVS     R1,#+3
        MOV      R0,R6
          CFI FunCall mbedtls_debug_print_buf
        BL       mbedtls_debug_print_buf
// 1600 
// 1601     /*
// 1602      * Check the compression algorithms length and pick one
// 1603      */
// 1604     comp_offset = ciph_offset + 2 + ciph_len;
        LDR      R8,[SP, #+16]
        ADD      R8,R11,R8
        ADD      R8,R8,#+2
// 1605 
// 1606     comp_len = buf[comp_offset];
        LDR      R0,[SP, #+12]
        LDRB     R5,[R0, R8]
// 1607 
// 1608     if( comp_len < 1 ||
// 1609         comp_len > 16 ||
// 1610         comp_len + comp_offset + 1 > msg_len )
        CMP      R5,#+0
        BEQ.N    ??ssl_parse_client_hello_39
        CMP      R5,#+17
        BCS.N    ??ssl_parse_client_hello_39
        ADD      R0,R8,R5
        ADDS     R0,R0,#+1
        CMP      R7,R0
        BCS.N    ??ssl_parse_client_hello_40
// 1611     {
// 1612         MBEDTLS_SSL_DEBUG_MSG( 1, ( "bad client hello message" ) );
??ssl_parse_client_hello_39:
        LDR.W    R0,??DataTable16_2
        STR      R0,[SP, #+0]
        MOVW     R3,#+1612
        MOV      R2,R4
        MOVS     R1,#+1
        MOV      R0,R6
          CFI FunCall mbedtls_debug_print_msg
        BL       mbedtls_debug_print_msg
// 1613         mbedtls_ssl_send_alert_message( ssl, MBEDTLS_SSL_ALERT_LEVEL_FATAL,
// 1614                                         MBEDTLS_SSL_ALERT_MSG_DECODE_ERROR );
        MOVS     R2,#+50
        MOVS     R1,#+2
        MOV      R0,R6
          CFI FunCall mbedtls_ssl_send_alert_message
        BL       mbedtls_ssl_send_alert_message
// 1615         return( MBEDTLS_ERR_SSL_BAD_HS_CLIENT_HELLO );
        LDR.W    R0,??DataTable16_3  ;; 0xffff8700
        B.N      ??ssl_parse_client_hello_8
// 1616     }
// 1617 
// 1618     MBEDTLS_SSL_DEBUG_BUF( 3, "client hello, compression",
// 1619                       buf + comp_offset + 1, comp_len );
??ssl_parse_client_hello_40:
        STR      R5,[SP, #+8]
        LDR      R0,[SP, #+12]
        ADD      R0,R0,R8
        ADDS     R0,R0,#+1
        STR      R0,[SP, #+4]
        LDR.W    R0,??DataTable24_2
        STR      R0,[SP, #+0]
        MOVW     R3,#+1619
        MOV      R2,R4
        MOVS     R1,#+3
        MOV      R0,R6
          CFI FunCall mbedtls_debug_print_buf
        BL       mbedtls_debug_print_buf
// 1620 
// 1621     ssl->session_negotiate->compression = MBEDTLS_SSL_COMPRESS_NULL;
        MOVS     R0,#+0
        LDR      R1,[R6, #+56]
        STR      R0,[R1, #+4]
// 1622 #if defined(MBEDTLS_ZLIB_SUPPORT)
// 1623     for( i = 0; i < comp_len; ++i )
// 1624     {
// 1625         if( buf[comp_offset + 1 + i] == MBEDTLS_SSL_COMPRESS_DEFLATE )
// 1626         {
// 1627             ssl->session_negotiate->compression = MBEDTLS_SSL_COMPRESS_DEFLATE;
// 1628             break;
// 1629         }
// 1630     }
// 1631 #endif
// 1632 
// 1633     /* See comments in ssl_write_client_hello() */
// 1634 #if defined(MBEDTLS_SSL_PROTO_DTLS)
// 1635     if( ssl->conf->transport == MBEDTLS_SSL_TRANSPORT_DATAGRAM )
        LDR      R0,[R6, #+0]
        LDR      R0,[R0, #+204]
        UBFX     R0,R0,#+1,#+1
        CMP      R0,#+0
        BEQ.N    ??ssl_parse_client_hello_41
// 1636         ssl->session_negotiate->compression = MBEDTLS_SSL_COMPRESS_NULL;
        MOVS     R0,#+0
        LDR      R1,[R6, #+56]
        STR      R0,[R1, #+4]
// 1637 #endif
// 1638 
// 1639     /* Do not parse the extensions if the protocol is SSLv3 */
// 1640 #if defined(MBEDTLS_SSL_PROTO_SSL3)
// 1641     if( ( ssl->major_ver != 3 ) || ( ssl->minor_ver != 0 ) )
// 1642     {
// 1643 #endif
// 1644         /*
// 1645          * Check the extension length
// 1646          */
// 1647         ext_offset = comp_offset + 1 + comp_len;
??ssl_parse_client_hello_41:
        ADD      R8,R5,R8
        ADD      R8,R8,#+1
// 1648         if( msg_len > ext_offset )
        CMP      R8,R7
        BCS.N    ??ssl_parse_client_hello_42
// 1649         {
// 1650             if( msg_len < ext_offset + 2 )
        ADD      R0,R8,#+2
        CMP      R7,R0
        BCS.N    ??ssl_parse_client_hello_43
// 1651             {
// 1652                 MBEDTLS_SSL_DEBUG_MSG( 1, ( "bad client hello message" ) );
        LDR.W    R0,??DataTable16_2
        STR      R0,[SP, #+0]
        MOVW     R3,#+1652
        MOV      R2,R4
        MOVS     R1,#+1
        MOV      R0,R6
          CFI FunCall mbedtls_debug_print_msg
        BL       mbedtls_debug_print_msg
// 1653                 mbedtls_ssl_send_alert_message( ssl, MBEDTLS_SSL_ALERT_LEVEL_FATAL,
// 1654                                                 MBEDTLS_SSL_ALERT_MSG_DECODE_ERROR );
        MOVS     R2,#+50
        MOVS     R1,#+2
        MOV      R0,R6
          CFI FunCall mbedtls_ssl_send_alert_message
        BL       mbedtls_ssl_send_alert_message
// 1655                 return( MBEDTLS_ERR_SSL_BAD_HS_CLIENT_HELLO );
        LDR.W    R0,??DataTable16_3  ;; 0xffff8700
        B.N      ??ssl_parse_client_hello_8
// 1656             }
// 1657 
// 1658             ext_len = ( buf[ext_offset + 0] << 8 )
// 1659                     | ( buf[ext_offset + 1]      );
??ssl_parse_client_hello_43:
        LDR      R0,[SP, #+12]
        LDRB     R0,[R0, R8]
        LDR      R1,[SP, #+12]
        ADD      R1,R1,R8
        LDRB     R5,[R1, #+1]
        ORRS     R5,R5,R0, LSL #+8
// 1660 
// 1661             if( ( ext_len > 0 && ext_len < 4 ) ||
// 1662                 msg_len != ext_offset + 2 + ext_len )
        BEQ.N    ??ssl_parse_client_hello_44
        CMP      R5,#+4
        BCC.N    ??ssl_parse_client_hello_45
??ssl_parse_client_hello_44:
        ADD      R0,R5,R8
        ADDS     R0,R0,#+2
        CMP      R7,R0
        BEQ.N    ??ssl_parse_client_hello_46
// 1663             {
// 1664                 MBEDTLS_SSL_DEBUG_MSG( 1, ( "bad client hello message" ) );
??ssl_parse_client_hello_45:
        LDR.W    R0,??DataTable16_2
        STR      R0,[SP, #+0]
        MOV      R3,#+1664
        MOV      R2,R4
        MOVS     R1,#+1
        MOV      R0,R6
          CFI FunCall mbedtls_debug_print_msg
        BL       mbedtls_debug_print_msg
// 1665                 mbedtls_ssl_send_alert_message( ssl, MBEDTLS_SSL_ALERT_LEVEL_FATAL,
// 1666                                                 MBEDTLS_SSL_ALERT_MSG_DECODE_ERROR );
        MOVS     R2,#+50
        MOVS     R1,#+2
        MOV      R0,R6
          CFI FunCall mbedtls_ssl_send_alert_message
        BL       mbedtls_ssl_send_alert_message
// 1667                 return( MBEDTLS_ERR_SSL_BAD_HS_CLIENT_HELLO );
        LDR.W    R0,??DataTable16_3  ;; 0xffff8700
        B.N      ??ssl_parse_client_hello_8
// 1668             }
// 1669         }
// 1670         else
// 1671             ext_len = 0;
??ssl_parse_client_hello_42:
        MOVS     R5,#+0
// 1672 
// 1673         ext = buf + ext_offset + 2;
??ssl_parse_client_hello_46:
        LDR      R0,[SP, #+12]
        ADD      R0,R0,R8
        ADD      R9,R0,#+2
// 1674         MBEDTLS_SSL_DEBUG_BUF( 3, "client hello extensions", ext, ext_len );
        STR      R5,[SP, #+8]
        STR      R9,[SP, #+4]
        LDR.W    R0,??DataTable24_3
        STR      R0,[SP, #+0]
        MOVW     R3,#+1674
        MOV      R2,R4
        MOVS     R1,#+3
        MOV      R0,R6
          CFI FunCall mbedtls_debug_print_buf
        BL       mbedtls_debug_print_buf
        LDR      R7,[SP, #+40]
        LDR      R8,[SP, #+36]
// 1675 
// 1676         while( ext_len != 0 )
??ssl_parse_client_hello_47:
        CMP      R5,#+0
        BEQ.W    ??ssl_parse_client_hello_48
// 1677         {
// 1678             unsigned int ext_id;
// 1679             unsigned int ext_size;
// 1680             if ( ext_len < 4 ) {
        CMP      R5,#+4
        BCS.N    ??ssl_parse_client_hello_49
// 1681                 MBEDTLS_SSL_DEBUG_MSG( 1, ( "bad client hello message" ) );
        LDR.W    R0,??DataTable16_2
        STR      R0,[SP, #+0]
        MOVW     R3,#+1681
        MOV      R2,R4
        MOVS     R1,#+1
        MOV      R0,R6
          CFI FunCall mbedtls_debug_print_msg
        BL       mbedtls_debug_print_msg
// 1682                 mbedtls_ssl_send_alert_message( ssl, MBEDTLS_SSL_ALERT_LEVEL_FATAL,
// 1683                                                MBEDTLS_SSL_ALERT_MSG_DECODE_ERROR );
        MOVS     R2,#+50
        MOVS     R1,#+2
        MOV      R0,R6
          CFI FunCall mbedtls_ssl_send_alert_message
        BL       mbedtls_ssl_send_alert_message
// 1684                 return( MBEDTLS_ERR_SSL_BAD_HS_CLIENT_HELLO );
        LDR.W    R0,??DataTable16_3  ;; 0xffff8700
        B.N      ??ssl_parse_client_hello_8
// 1685             }
// 1686             ext_id   = ( ( ext[0] <<  8 ) | ( ext[1] ) );
??ssl_parse_client_hello_49:
        LDRB     R1,[R9, #+0]
        LDRB     R0,[R9, #+1]
        ORR      R0,R0,R1, LSL #+8
// 1687             ext_size = ( ( ext[2] <<  8 ) | ( ext[3] ) );
        LDRB     R1,[R9, #+2]
        LDRB     R10,[R9, #+3]
        ORR      R10,R10,R1, LSL #+8
// 1688 
// 1689             if( ext_size + 4 > ext_len )
        ADD      R1,R10,#+4
        CMP      R5,R1
        BCS.N    ??ssl_parse_client_hello_50
// 1690             {
// 1691                 MBEDTLS_SSL_DEBUG_MSG( 1, ( "bad client hello message" ) );
        LDR.W    R0,??DataTable16_2
        STR      R0,[SP, #+0]
        MOVW     R3,#+1691
        MOV      R2,R4
        MOVS     R1,#+1
        MOV      R0,R6
          CFI FunCall mbedtls_debug_print_msg
        BL       mbedtls_debug_print_msg
// 1692                 mbedtls_ssl_send_alert_message( ssl, MBEDTLS_SSL_ALERT_LEVEL_FATAL,
// 1693                                                 MBEDTLS_SSL_ALERT_MSG_DECODE_ERROR );
        MOVS     R2,#+50
        MOVS     R1,#+2
        MOV      R0,R6
          CFI FunCall mbedtls_ssl_send_alert_message
        BL       mbedtls_ssl_send_alert_message
// 1694                 return( MBEDTLS_ERR_SSL_BAD_HS_CLIENT_HELLO );
        LDR.W    R0,??DataTable16_3  ;; 0xffff8700
        B.N      ??ssl_parse_client_hello_8
// 1695             }
// 1696             switch( ext_id )
??ssl_parse_client_hello_50:
        MOVS     R1,R0
        BEQ.N    ??ssl_parse_client_hello_51
        CMP      R1,#+1
        BEQ.W    ??ssl_parse_client_hello_52
        CMP      R1,#+4
        BEQ.W    ??ssl_parse_client_hello_53
        CMP      R1,#+10
        BEQ.N    ??ssl_parse_client_hello_54
        CMP      R1,#+11
        BEQ.N    ??ssl_parse_client_hello_55
        CMP      R1,#+13
        BEQ.N    ??ssl_parse_client_hello_56
        CMP      R1,#+16
        BEQ.W    ??ssl_parse_client_hello_57
        CMP      R1,#+22
        BEQ.W    ??ssl_parse_client_hello_58
        CMP      R1,#+23
        BEQ.W    ??ssl_parse_client_hello_59
        CMP      R1,#+35
        BEQ.W    ??ssl_parse_client_hello_60
        MOVW     R2,#+65281
        CMP      R1,R2
        BEQ.N    ??ssl_parse_client_hello_61
        B.N      ??ssl_parse_client_hello_62
// 1697             {
// 1698 #if defined(MBEDTLS_SSL_SERVER_NAME_INDICATION)
// 1699             case MBEDTLS_TLS_EXT_SERVERNAME:
// 1700                 MBEDTLS_SSL_DEBUG_MSG( 3, ( "found ServerName extension" ) );
??ssl_parse_client_hello_51:
        LDR.W    R0,??DataTable24_4
        STR      R0,[SP, #+0]
        MOVW     R3,#+1700
        MOV      R2,R4
        MOVS     R1,#+3
        MOV      R0,R6
          CFI FunCall mbedtls_debug_print_msg
        BL       mbedtls_debug_print_msg
// 1701                 if( ssl->conf->f_sni == NULL )
        LDR      R0,[R6, #+0]
        LDR      R0,[R0, #+44]
        CMP      R0,#+0
        BEQ.W    ??ssl_parse_client_hello_63
// 1702                     break;
// 1703 
// 1704                 ret = ssl_parse_servername_ext( ssl, ext + 4, ext_size );
        MOV      R2,R10
        ADD      R1,R9,#+4
        MOV      R0,R6
          CFI FunCall ssl_parse_servername_ext
        BL       ssl_parse_servername_ext
// 1705                 if( ret != 0 )
        CMP      R0,#+0
        BNE.W    ??ssl_parse_client_hello_8
        B.N      ??ssl_parse_client_hello_63
// 1706                     return( ret );
// 1707                 break;
// 1708 #endif /* MBEDTLS_SSL_SERVER_NAME_INDICATION */
// 1709 
// 1710             case MBEDTLS_TLS_EXT_RENEGOTIATION_INFO:
// 1711                 MBEDTLS_SSL_DEBUG_MSG( 3, ( "found renegotiation extension" ) );
??ssl_parse_client_hello_61:
        LDR.W    R0,??DataTable24_5
        STR      R0,[SP, #+0]
        MOVW     R3,#+1711
        MOV      R2,R4
        MOVS     R1,#+3
        MOV      R0,R6
          CFI FunCall mbedtls_debug_print_msg
        BL       mbedtls_debug_print_msg
// 1712 #if defined(MBEDTLS_SSL_RENEGOTIATION)
// 1713                 renegotiation_info_seen = 1;
        MOVS     R7,#+1
// 1714 #endif
// 1715 
// 1716                 ret = ssl_parse_renegotiation_info( ssl, ext + 4, ext_size );
        MOV      R2,R10
        ADD      R1,R9,#+4
        MOV      R0,R6
          CFI FunCall ssl_parse_renegotiation_info
        BL       ssl_parse_renegotiation_info
// 1717                 if( ret != 0 )
        CMP      R0,#+0
        BNE.W    ??ssl_parse_client_hello_8
        B.N      ??ssl_parse_client_hello_63
// 1718                     return( ret );
// 1719                 break;
// 1720 
// 1721 #if defined(MBEDTLS_SSL_PROTO_TLS1_2) && \ 
// 1722     defined(MBEDTLS_KEY_EXCHANGE__WITH_CERT__ENABLED)
// 1723             case MBEDTLS_TLS_EXT_SIG_ALG:
// 1724                 MBEDTLS_SSL_DEBUG_MSG( 3, ( "found signature_algorithms extension" ) );
??ssl_parse_client_hello_56:
        LDR.W    R0,??DataTable24_6
        STR      R0,[SP, #+0]
        MOVW     R3,#+1724
        MOV      R2,R4
        MOVS     R1,#+3
        MOV      R0,R6
          CFI FunCall mbedtls_debug_print_msg
        BL       mbedtls_debug_print_msg
// 1725 
// 1726                 ret = ssl_parse_signature_algorithms_ext( ssl, ext + 4, ext_size );
        MOV      R2,R10
        ADD      R1,R9,#+4
        MOV      R0,R6
          CFI FunCall ssl_parse_signature_algorithms_ext
        BL       ssl_parse_signature_algorithms_ext
// 1727                 if( ret != 0 )
        CMP      R0,#+0
        BNE.W    ??ssl_parse_client_hello_8
// 1728                     return( ret );
// 1729 
// 1730                 sig_hash_alg_ext_present = 1;
        MOV      R8,#+1
// 1731                 break;
        B.N      ??ssl_parse_client_hello_63
// 1732 #endif /* MBEDTLS_SSL_PROTO_TLS1_2 &&
// 1733           MBEDTLS_KEY_EXCHANGE__WITH_CERT__ENABLED */
// 1734 
// 1735 #if defined(MBEDTLS_ECDH_C) || defined(MBEDTLS_ECDSA_C) || \ 
// 1736     defined(MBEDTLS_KEY_EXCHANGE_ECJPAKE_ENABLED)
// 1737             case MBEDTLS_TLS_EXT_SUPPORTED_ELLIPTIC_CURVES:
// 1738                 MBEDTLS_SSL_DEBUG_MSG( 3, ( "found supported elliptic curves extension" ) );
??ssl_parse_client_hello_54:
        LDR.W    R0,??DataTable24_7
        STR      R0,[SP, #+0]
        MOVW     R3,#+1738
        MOV      R2,R4
        MOVS     R1,#+3
        MOV      R0,R6
          CFI FunCall mbedtls_debug_print_msg
        BL       mbedtls_debug_print_msg
// 1739 
// 1740                 ret = ssl_parse_supported_elliptic_curves( ssl, ext + 4, ext_size );
        MOV      R2,R10
        ADD      R1,R9,#+4
        MOV      R0,R6
          CFI FunCall ssl_parse_supported_elliptic_curves
        BL       ssl_parse_supported_elliptic_curves
// 1741                 if( ret != 0 )
        CMP      R0,#+0
        BNE.W    ??ssl_parse_client_hello_8
        B.N      ??ssl_parse_client_hello_63
// 1742                     return( ret );
// 1743                 break;
// 1744 
// 1745             case MBEDTLS_TLS_EXT_SUPPORTED_POINT_FORMATS:
// 1746                 MBEDTLS_SSL_DEBUG_MSG( 3, ( "found supported point formats extension" ) );
??ssl_parse_client_hello_55:
        LDR.W    R0,??DataTable24_8
        STR      R0,[SP, #+0]
        MOVW     R3,#+1746
        MOV      R2,R4
        MOVS     R1,#+3
        MOV      R0,R6
          CFI FunCall mbedtls_debug_print_msg
        BL       mbedtls_debug_print_msg
// 1747                 ssl->handshake->cli_exts |= MBEDTLS_TLS_EXT_SUPPORTED_POINT_FORMATS_PRESENT;
        LDR      R0,[R6, #+60]
        LDR      R0,[R0, #+1740]
        ORR      R0,R0,#0x1
        LDR      R1,[R6, #+60]
        STR      R0,[R1, #+1740]
// 1748 
// 1749                 ret = ssl_parse_supported_point_formats( ssl, ext + 4, ext_size );
        MOV      R2,R10
        ADD      R1,R9,#+4
        MOV      R0,R6
          CFI FunCall ssl_parse_supported_point_formats
        BL       ssl_parse_supported_point_formats
// 1750                 if( ret != 0 )
        CMP      R0,#+0
        BNE.W    ??ssl_parse_client_hello_8
        B.N      ??ssl_parse_client_hello_63
// 1751                     return( ret );
// 1752                 break;
// 1753 #endif /* MBEDTLS_ECDH_C || MBEDTLS_ECDSA_C ||
// 1754           MBEDTLS_KEY_EXCHANGE_ECJPAKE_ENABLED */
// 1755 
// 1756 #if defined(MBEDTLS_KEY_EXCHANGE_ECJPAKE_ENABLED)
// 1757             case MBEDTLS_TLS_EXT_ECJPAKE_KKPP:
// 1758                 MBEDTLS_SSL_DEBUG_MSG( 3, ( "found ecjpake kkpp extension" ) );
// 1759 
// 1760                 ret = ssl_parse_ecjpake_kkpp( ssl, ext + 4, ext_size );
// 1761                 if( ret != 0 )
// 1762                     return( ret );
// 1763                 break;
// 1764 #endif /* MBEDTLS_KEY_EXCHANGE_ECJPAKE_ENABLED */
// 1765 
// 1766 #if defined(MBEDTLS_SSL_MAX_FRAGMENT_LENGTH)
// 1767             case MBEDTLS_TLS_EXT_MAX_FRAGMENT_LENGTH:
// 1768                 MBEDTLS_SSL_DEBUG_MSG( 3, ( "found max fragment length extension" ) );
??ssl_parse_client_hello_52:
        LDR.W    R0,??DataTable24_9
        STR      R0,[SP, #+0]
        MOV      R3,#+1768
        MOV      R2,R4
        MOVS     R1,#+3
        MOV      R0,R6
          CFI FunCall mbedtls_debug_print_msg
        BL       mbedtls_debug_print_msg
// 1769 
// 1770                 ret = ssl_parse_max_fragment_length_ext( ssl, ext + 4, ext_size );
        MOV      R2,R10
        ADD      R1,R9,#+4
        MOV      R0,R6
          CFI FunCall ssl_parse_max_fragment_length_ext
        BL       ssl_parse_max_fragment_length_ext
// 1771                 if( ret != 0 )
        CMP      R0,#+0
        BNE.W    ??ssl_parse_client_hello_8
        B.N      ??ssl_parse_client_hello_63
// 1772                     return( ret );
// 1773                 break;
// 1774 #endif /* MBEDTLS_SSL_MAX_FRAGMENT_LENGTH */
// 1775 
// 1776 #if defined(MBEDTLS_SSL_TRUNCATED_HMAC)
// 1777             case MBEDTLS_TLS_EXT_TRUNCATED_HMAC:
// 1778                 MBEDTLS_SSL_DEBUG_MSG( 3, ( "found truncated hmac extension" ) );
??ssl_parse_client_hello_53:
        LDR.W    R0,??DataTable24_10
        STR      R0,[SP, #+0]
        MOVW     R3,#+1778
        MOV      R2,R4
        MOVS     R1,#+3
        MOV      R0,R6
          CFI FunCall mbedtls_debug_print_msg
        BL       mbedtls_debug_print_msg
// 1779 
// 1780                 ret = ssl_parse_truncated_hmac_ext( ssl, ext + 4, ext_size );
        MOV      R2,R10
        ADD      R1,R9,#+4
        MOV      R0,R6
          CFI FunCall ssl_parse_truncated_hmac_ext
        BL       ssl_parse_truncated_hmac_ext
// 1781                 if( ret != 0 )
        CMP      R0,#+0
        BNE.W    ??ssl_parse_client_hello_8
        B.N      ??ssl_parse_client_hello_63
// 1782                     return( ret );
// 1783                 break;
// 1784 #endif /* MBEDTLS_SSL_TRUNCATED_HMAC */
// 1785 
// 1786 #if defined(MBEDTLS_SSL_ENCRYPT_THEN_MAC)
// 1787             case MBEDTLS_TLS_EXT_ENCRYPT_THEN_MAC:
// 1788                 MBEDTLS_SSL_DEBUG_MSG( 3, ( "found encrypt then mac extension" ) );
??ssl_parse_client_hello_58:
        LDR.W    R0,??DataTable24_11
        STR      R0,[SP, #+0]
        MOVW     R3,#+1788
        MOV      R2,R4
        MOVS     R1,#+3
        MOV      R0,R6
          CFI FunCall mbedtls_debug_print_msg
        BL       mbedtls_debug_print_msg
// 1789 
// 1790                 ret = ssl_parse_encrypt_then_mac_ext( ssl, ext + 4, ext_size );
        MOV      R2,R10
        ADD      R1,R9,#+4
        MOV      R0,R6
          CFI FunCall ssl_parse_encrypt_then_mac_ext
        BL       ssl_parse_encrypt_then_mac_ext
// 1791                 if( ret != 0 )
        CMP      R0,#+0
        BNE.W    ??ssl_parse_client_hello_8
        B.N      ??ssl_parse_client_hello_63
// 1792                     return( ret );
// 1793                 break;
// 1794 #endif /* MBEDTLS_SSL_ENCRYPT_THEN_MAC */
// 1795 
// 1796 #if defined(MBEDTLS_SSL_EXTENDED_MASTER_SECRET)
// 1797             case MBEDTLS_TLS_EXT_EXTENDED_MASTER_SECRET:
// 1798                 MBEDTLS_SSL_DEBUG_MSG( 3, ( "found extended master secret extension" ) );
??ssl_parse_client_hello_59:
        LDR.W    R0,??DataTable24_12
        STR      R0,[SP, #+0]
        MOVW     R3,#+1798
        MOV      R2,R4
        MOVS     R1,#+3
        MOV      R0,R6
          CFI FunCall mbedtls_debug_print_msg
        BL       mbedtls_debug_print_msg
// 1799 
// 1800                 ret = ssl_parse_extended_ms_ext( ssl, ext + 4, ext_size );
        MOV      R2,R10
        ADD      R1,R9,#+4
        MOV      R0,R6
          CFI FunCall ssl_parse_extended_ms_ext
        BL       ssl_parse_extended_ms_ext
// 1801                 if( ret != 0 )
        CMP      R0,#+0
        BNE.W    ??ssl_parse_client_hello_8
        B.N      ??ssl_parse_client_hello_63
// 1802                     return( ret );
// 1803                 break;
// 1804 #endif /* MBEDTLS_SSL_EXTENDED_MASTER_SECRET */
// 1805 
// 1806 #if defined(MBEDTLS_SSL_SESSION_TICKETS)
// 1807             case MBEDTLS_TLS_EXT_SESSION_TICKET:
// 1808                 MBEDTLS_SSL_DEBUG_MSG( 3, ( "found session ticket extension" ) );
??ssl_parse_client_hello_60:
        LDR.W    R0,??DataTable25
        STR      R0,[SP, #+0]
        MOV      R3,#+1808
        MOV      R2,R4
        MOVS     R1,#+3
        MOV      R0,R6
          CFI FunCall mbedtls_debug_print_msg
        BL       mbedtls_debug_print_msg
// 1809 
// 1810                 ret = ssl_parse_session_ticket_ext( ssl, ext + 4, ext_size );
        MOV      R2,R10
        ADD      R1,R9,#+4
        MOV      R0,R6
          CFI FunCall ssl_parse_session_ticket_ext
        BL       ssl_parse_session_ticket_ext
// 1811                 if( ret != 0 )
        CMP      R0,#+0
        BNE.W    ??ssl_parse_client_hello_8
        B.N      ??ssl_parse_client_hello_63
// 1812                     return( ret );
// 1813                 break;
// 1814 #endif /* MBEDTLS_SSL_SESSION_TICKETS */
// 1815 
// 1816 #if defined(MBEDTLS_SSL_ALPN)
// 1817             case MBEDTLS_TLS_EXT_ALPN:
// 1818                 MBEDTLS_SSL_DEBUG_MSG( 3, ( "found alpn extension" ) );
??ssl_parse_client_hello_57:
        LDR.W    R0,??DataTable25_1
        STR      R0,[SP, #+0]
        MOVW     R3,#+1818
        MOV      R2,R4
        MOVS     R1,#+3
        MOV      R0,R6
          CFI FunCall mbedtls_debug_print_msg
        BL       mbedtls_debug_print_msg
// 1819 
// 1820                 ret = ssl_parse_alpn_ext( ssl, ext + 4, ext_size );
        MOV      R2,R10
        ADD      R1,R9,#+4
        MOV      R0,R6
          CFI FunCall ssl_parse_alpn_ext
        BL       ssl_parse_alpn_ext
// 1821                 if( ret != 0 )
        CMP      R0,#+0
        BNE.W    ??ssl_parse_client_hello_8
        B.N      ??ssl_parse_client_hello_63
// 1822                     return( ret );
// 1823                 break;
// 1824 #endif /* MBEDTLS_SSL_SESSION_TICKETS */
// 1825 
// 1826             default:
// 1827                 MBEDTLS_SSL_DEBUG_MSG( 3, ( "unknown extension found: %d (ignoring)",
// 1828                                ext_id ) );
??ssl_parse_client_hello_62:
        STR      R0,[SP, #+4]
        LDR.W    R0,??DataTable25_3
        STR      R0,[SP, #+0]
        MOVW     R3,#+1828
        MOV      R2,R4
        MOVS     R1,#+3
        MOV      R0,R6
          CFI FunCall mbedtls_debug_print_msg
        BL       mbedtls_debug_print_msg
// 1829             }
// 1830 
// 1831             ext_len -= 4 + ext_size;
??ssl_parse_client_hello_63:
        SUB      R5,R5,R10
        SUBS     R5,R5,#+4
// 1832             ext += 4 + ext_size;
        ADD      R0,R9,R10
        ADD      R9,R0,#+4
// 1833 
// 1834             if( ext_len > 0 && ext_len < 4 )
        BEQ.W    ??ssl_parse_client_hello_47
        CMP      R5,#+4
        BCS.W    ??ssl_parse_client_hello_47
// 1835             {
// 1836                 MBEDTLS_SSL_DEBUG_MSG( 1, ( "bad client hello message" ) );
        LDR.W    R0,??DataTable16_2
        STR      R0,[SP, #+0]
        MOVW     R3,#+1836
        MOV      R2,R4
        MOVS     R1,#+1
        MOV      R0,R6
          CFI FunCall mbedtls_debug_print_msg
        BL       mbedtls_debug_print_msg
// 1837                 mbedtls_ssl_send_alert_message( ssl, MBEDTLS_SSL_ALERT_LEVEL_FATAL,
// 1838                                                 MBEDTLS_SSL_ALERT_MSG_DECODE_ERROR );
        MOVS     R2,#+50
        MOVS     R1,#+2
        MOV      R0,R6
          CFI FunCall mbedtls_ssl_send_alert_message
        BL       mbedtls_ssl_send_alert_message
// 1839                 return( MBEDTLS_ERR_SSL_BAD_HS_CLIENT_HELLO );
        LDR.W    R0,??DataTable16_3  ;; 0xffff8700
        B.N      ??ssl_parse_client_hello_8
// 1840             }
// 1841         }
// 1842 #if defined(MBEDTLS_SSL_PROTO_SSL3)
// 1843     }
// 1844 #endif
// 1845 
// 1846 #if defined(MBEDTLS_SSL_FALLBACK_SCSV)
// 1847     for( i = 0, p = buf + ciph_offset + 2; i < ciph_len; i += 2, p += 2 )
??ssl_parse_client_hello_64:
        ADDS     R1,R1,#+2
        ADDS     R2,R2,#+2
??ssl_parse_client_hello_65:
        CMP      R1,R6
        BCS.W    ??ssl_parse_client_hello_66
// 1848     {
// 1849         if( p[0] == (unsigned char)( ( MBEDTLS_SSL_FALLBACK_SCSV_VALUE >> 8 ) & 0xff ) &&
// 1850             p[1] == (unsigned char)( ( MBEDTLS_SSL_FALLBACK_SCSV_VALUE      ) & 0xff ) )
        LDRB     R0,[R2, #+0]
        CMP      R0,#+86
        BNE.N    ??ssl_parse_client_hello_64
        LDRB     R0,[R2, #+1]
        CMP      R0,#+0
        BNE.N    ??ssl_parse_client_hello_64
// 1851         {
// 1852             MBEDTLS_SSL_DEBUG_MSG( 2, ( "received FALLBACK_SCSV" ) );
        LDR.W    R0,??DataTable25_5
        STR      R0,[SP, #+0]
        MOVW     R3,#+1852
        MOV      R2,R4
        MOVS     R1,#+2
        MOV      R0,R5
          CFI FunCall mbedtls_debug_print_msg
        BL       mbedtls_debug_print_msg
// 1853 
// 1854             if( ssl->minor_ver < ssl->conf->max_minor_ver )
        LDR      R0,[R5, #+20]
        LDR      R1,[R5, #+0]
        LDRB     R1,[R1, #+201]
        CMP      R0,R1
        BGE.W    ??ssl_parse_client_hello_66
// 1855             {
// 1856                 MBEDTLS_SSL_DEBUG_MSG( 1, ( "inapropriate fallback" ) );
        LDR.W    R0,??DataTable25_6
        STR      R0,[SP, #+0]
        MOV      R3,#+1856
        MOV      R2,R4
        MOVS     R1,#+1
        MOV      R0,R5
          CFI FunCall mbedtls_debug_print_msg
        BL       mbedtls_debug_print_msg
// 1857 
// 1858                 mbedtls_ssl_send_alert_message( ssl, MBEDTLS_SSL_ALERT_LEVEL_FATAL,
// 1859                                         MBEDTLS_SSL_ALERT_MSG_INAPROPRIATE_FALLBACK );
        MOVS     R2,#+86
        MOVS     R1,#+2
        MOV      R0,R5
          CFI FunCall mbedtls_ssl_send_alert_message
        BL       mbedtls_ssl_send_alert_message
// 1860 
// 1861                 return( MBEDTLS_ERR_SSL_BAD_HS_CLIENT_HELLO );
        LDR.N    R0,??DataTable16_3  ;; 0xffff8700
        B.N      ??ssl_parse_client_hello_8
// 1862             }
// 1863 
// 1864             break;
// 1865         }
// 1866     }
// 1867 #endif /* MBEDTLS_SSL_FALLBACK_SCSV */
// 1868 
// 1869 #if defined(MBEDTLS_SSL_PROTO_TLS1_2) && \ 
// 1870     defined(MBEDTLS_KEY_EXCHANGE__WITH_CERT__ENABLED)
// 1871 
// 1872     /*
// 1873      * Try to fall back to default hash SHA1 if the client
// 1874      * hasn't provided any preferred signature-hash combinations.
// 1875      */
// 1876     if( sig_hash_alg_ext_present == 0 )
// 1877     {
// 1878         mbedtls_md_type_t md_default = MBEDTLS_MD_SHA1;
// 1879 
// 1880         if( mbedtls_ssl_check_sig_hash( ssl, md_default ) != 0 )
// 1881             md_default = MBEDTLS_MD_NONE;
// 1882 
// 1883         mbedtls_ssl_sig_hash_set_const_hash( &ssl->handshake->hash_algs, md_default );
// 1884     }
// 1885 
// 1886 #endif /* MBEDTLS_SSL_PROTO_TLS1_2 &&
// 1887           MBEDTLS_KEY_EXCHANGE__WITH_CERT__ENABLED */
// 1888 
// 1889     /*
// 1890      * Check for TLS_EMPTY_RENEGOTIATION_INFO_SCSV
// 1891      */
// 1892     for( i = 0, p = buf + ciph_offset + 2; i < ciph_len; i += 2, p += 2 )
??ssl_parse_client_hello_67:
        ADDS     R1,R1,#+2
        ADDS     R2,R2,#+2
??ssl_parse_client_hello_68:
        CMP      R1,R6
        BCS.N    ??ssl_parse_client_hello_69
// 1893     {
// 1894         if( p[0] == 0 && p[1] == MBEDTLS_SSL_EMPTY_RENEGOTIATION_INFO )
        LDRB     R0,[R2, #+0]
        CMP      R0,#+0
        BNE.N    ??ssl_parse_client_hello_67
        LDRB     R0,[R2, #+1]
        CMP      R0,#+255
        BNE.N    ??ssl_parse_client_hello_67
// 1895         {
// 1896             MBEDTLS_SSL_DEBUG_MSG( 3, ( "received TLS_EMPTY_RENEGOTIATION_INFO " ) );
        LDR.W    R0,??DataTable25_7
        STR      R0,[SP, #+0]
        MOV      R3,#+1896
        MOV      R2,R4
        MOVS     R1,#+3
        MOV      R0,R5
          CFI FunCall mbedtls_debug_print_msg
        BL       mbedtls_debug_print_msg
// 1897 #if defined(MBEDTLS_SSL_RENEGOTIATION)
// 1898             if( ssl->renego_status == MBEDTLS_SSL_RENEGOTIATION_IN_PROGRESS )
        LDR      R0,[R5, #+8]
        CMP      R0,#+1
        BNE.N    ??ssl_parse_client_hello_70
// 1899             {
// 1900                 MBEDTLS_SSL_DEBUG_MSG( 1, ( "received RENEGOTIATION SCSV "
// 1901                                             "during renegotiation" ) );
        LDR.W    R0,??DataTable25_8
        STR      R0,[SP, #+0]
        MOVW     R3,#+1901
        MOV      R2,R4
        MOVS     R1,#+1
        MOV      R0,R5
          CFI FunCall mbedtls_debug_print_msg
        BL       mbedtls_debug_print_msg
// 1902                 mbedtls_ssl_send_alert_message( ssl, MBEDTLS_SSL_ALERT_LEVEL_FATAL,
// 1903                                                 MBEDTLS_SSL_ALERT_MSG_HANDSHAKE_FAILURE );
        MOVS     R2,#+40
        MOVS     R1,#+2
        MOV      R0,R5
          CFI FunCall mbedtls_ssl_send_alert_message
        BL       mbedtls_ssl_send_alert_message
// 1904                 return( MBEDTLS_ERR_SSL_BAD_HS_CLIENT_HELLO );
        LDR.N    R0,??DataTable16_3  ;; 0xffff8700
        B.N      ??ssl_parse_client_hello_8
// 1905             }
// 1906 #endif
// 1907             ssl->secure_renegotiation = MBEDTLS_SSL_SECURE_RENEGOTIATION;
??ssl_parse_client_hello_70:
        MOVS     R0,#+1
        STR      R0,[R5, #+244]
// 1908             break;
// 1909         }
// 1910     }
// 1911 
// 1912     /*
// 1913      * Renegotiation security checks
// 1914      */
// 1915     if( ssl->secure_renegotiation != MBEDTLS_SSL_SECURE_RENEGOTIATION &&
// 1916         ssl->conf->allow_legacy_renegotiation == MBEDTLS_SSL_LEGACY_BREAK_HANDSHAKE )
??ssl_parse_client_hello_69:
        LDR      R0,[R5, #+244]
        CMP      R0,#+1
        BEQ.N    ??ssl_parse_client_hello_71
        LDR      R0,[R5, #+0]
        LDR      R0,[R0, #+204]
        UBFX     R0,R0,#+4,#+2
        CMP      R0,#+2
        BNE.N    ??ssl_parse_client_hello_71
// 1917     {
// 1918         MBEDTLS_SSL_DEBUG_MSG( 1, ( "legacy renegotiation, breaking off handshake" ) );
        LDR.W    R0,??DataTable25_9
        STR      R0,[SP, #+0]
        MOVW     R3,#+1918
        MOV      R2,R4
        MOVS     R1,#+1
        MOV      R0,R5
          CFI FunCall mbedtls_debug_print_msg
        BL       mbedtls_debug_print_msg
// 1919         handshake_failure = 1;
        MOVS     R0,#+1
        STR      R0,[SP, #+32]
        B.N      ??ssl_parse_client_hello_72
// 1920     }
// 1921 #if defined(MBEDTLS_SSL_RENEGOTIATION)
// 1922     else if( ssl->renego_status == MBEDTLS_SSL_RENEGOTIATION_IN_PROGRESS &&
// 1923              ssl->secure_renegotiation == MBEDTLS_SSL_SECURE_RENEGOTIATION &&
// 1924              renegotiation_info_seen == 0 )
??ssl_parse_client_hello_71:
        LDR      R0,[R5, #+8]
        CMP      R0,#+1
        BNE.N    ??ssl_parse_client_hello_73
        LDR      R0,[R5, #+244]
        CMP      R0,#+1
        BNE.N    ??ssl_parse_client_hello_73
        CMP      R7,#+0
        BNE.N    ??ssl_parse_client_hello_73
// 1925     {
// 1926         MBEDTLS_SSL_DEBUG_MSG( 1, ( "renegotiation_info extension missing (secure)" ) );
        LDR.W    R0,??DataTable25_10
        STR      R0,[SP, #+0]
        MOVW     R3,#+1926
        MOV      R2,R4
        MOVS     R1,#+1
        MOV      R0,R5
          CFI FunCall mbedtls_debug_print_msg
        BL       mbedtls_debug_print_msg
// 1927         handshake_failure = 1;
        MOVS     R0,#+1
        STR      R0,[SP, #+32]
        B.N      ??ssl_parse_client_hello_72
// 1928     }
// 1929     else if( ssl->renego_status == MBEDTLS_SSL_RENEGOTIATION_IN_PROGRESS &&
// 1930              ssl->secure_renegotiation == MBEDTLS_SSL_LEGACY_RENEGOTIATION &&
// 1931              ssl->conf->allow_legacy_renegotiation == MBEDTLS_SSL_LEGACY_NO_RENEGOTIATION )
??ssl_parse_client_hello_73:
        LDR      R0,[R5, #+8]
        CMP      R0,#+1
        BNE.N    ??ssl_parse_client_hello_74
        LDR      R0,[R5, #+244]
        CMP      R0,#+0
        BNE.N    ??ssl_parse_client_hello_74
        LDR      R0,[R5, #+0]
        LDR      R0,[R0, #+204]
        UBFX     R0,R0,#+4,#+2
        CMP      R0,#+0
        BNE.N    ??ssl_parse_client_hello_74
// 1932     {
// 1933         MBEDTLS_SSL_DEBUG_MSG( 1, ( "legacy renegotiation not allowed" ) );
        LDR.W    R0,??DataTable26
        STR      R0,[SP, #+0]
        MOVW     R3,#+1933
        MOV      R2,R4
        MOVS     R1,#+1
        MOV      R0,R5
          CFI FunCall mbedtls_debug_print_msg
        BL       mbedtls_debug_print_msg
// 1934         handshake_failure = 1;
        MOVS     R0,#+1
        STR      R0,[SP, #+32]
        B.N      ??ssl_parse_client_hello_72
// 1935     }
// 1936     else if( ssl->renego_status == MBEDTLS_SSL_RENEGOTIATION_IN_PROGRESS &&
// 1937              ssl->secure_renegotiation == MBEDTLS_SSL_LEGACY_RENEGOTIATION &&
// 1938              renegotiation_info_seen == 1 )
??ssl_parse_client_hello_74:
        LDR      R0,[R5, #+8]
        CMP      R0,#+1
        BNE.N    ??ssl_parse_client_hello_72
        LDR      R0,[R5, #+244]
        CMP      R0,#+0
        BNE.N    ??ssl_parse_client_hello_72
        CMP      R7,#+1
        BNE.N    ??ssl_parse_client_hello_72
// 1939     {
// 1940         MBEDTLS_SSL_DEBUG_MSG( 1, ( "renegotiation_info extension present (legacy)" ) );
        LDR.W    R0,??DataTable26_1
        STR      R0,[SP, #+0]
        MOVW     R3,#+1940
        MOV      R2,R4
        MOVS     R1,#+1
        MOV      R0,R5
          CFI FunCall mbedtls_debug_print_msg
        BL       mbedtls_debug_print_msg
// 1941         handshake_failure = 1;
        MOVS     R0,#+1
        STR      R0,[SP, #+32]
// 1942     }
// 1943 #endif /* MBEDTLS_SSL_RENEGOTIATION */
// 1944 
// 1945     if( handshake_failure == 1 )
??ssl_parse_client_hello_72:
        LDR      R0,[SP, #+32]
        CMP      R0,#+1
        BNE.N    ??ssl_parse_client_hello_75
// 1946     {
// 1947         mbedtls_ssl_send_alert_message( ssl, MBEDTLS_SSL_ALERT_LEVEL_FATAL,
// 1948                                         MBEDTLS_SSL_ALERT_MSG_HANDSHAKE_FAILURE );
        MOVS     R2,#+40
        MOVS     R1,#+2
        MOV      R0,R5
          CFI FunCall mbedtls_ssl_send_alert_message
        BL       mbedtls_ssl_send_alert_message
// 1949         return( MBEDTLS_ERR_SSL_BAD_HS_CLIENT_HELLO );
        LDR.N    R0,??DataTable16_3  ;; 0xffff8700
        B.N      ??ssl_parse_client_hello_8
// 1950     }
// 1951 
// 1952     /*
// 1953      * Search for a matching ciphersuite
// 1954      * (At the end because we need information from the EC-based extensions
// 1955      * and certificate from the SNI callback triggered by the SNI extension.)
// 1956      */
// 1957     got_common_suite = 0;
??ssl_parse_client_hello_75:
        MOVS     R0,#+0
// 1958     ciphersuites = ssl->conf->ciphersuite_list[ssl->minor_ver];
        LDR      R1,[R5, #+0]
        LDR      R2,[R5, #+20]
        LDR      R1,[R1, R2, LSL #+2]
// 1959     ciphersuite_info = NULL;
        MOV      R2,R0
        STR      R2,[SP, #+20]
// 1960 #if defined(MBEDTLS_SSL_SRV_RESPECT_CLIENT_PREFERENCE)
// 1961     for( j = 0, p = buf + ciph_offset + 2; j < ciph_len; j += 2, p += 2 )
// 1962         for( i = 0; ciphersuites[i] != 0; i++ )
// 1963 #else
// 1964     for( i = 0; ciphersuites[i] != 0; i++ )
        MOV      R7,R0
        B.N      ??ssl_parse_client_hello_76
// 1965         for( j = 0, p = buf + ciph_offset + 2; j < ciph_len; j += 2, p += 2 )
// 1966 #endif
// 1967         {
// 1968             if( p[0] != ( ( ciphersuites[i] >> 8 ) & 0xFF ) ||
// 1969                 p[1] != ( ( ciphersuites[i]      ) & 0xFF ) )
// 1970                 continue;
// 1971 
// 1972             got_common_suite = 1;
// 1973 
// 1974             if( ( ret = ssl_ciphersuite_match( ssl, ciphersuites[i],
// 1975                                                &ciphersuite_info ) ) != 0 )
// 1976                 return( ret );
// 1977 
// 1978             if( ciphersuite_info != NULL )
// 1979                 goto have_ciphersuite;
// 1980         }
// 1981 
// 1982     if( got_common_suite )
??ssl_parse_client_hello_77:
        CMP      R0,#+0
        BEQ.N    ??ssl_parse_client_hello_78
// 1983     {
// 1984         MBEDTLS_SSL_DEBUG_MSG( 1, ( "got ciphersuites in common, "
// 1985                             "but none of them usable" ) );
        LDR.W    R0,??DataTable27
        STR      R0,[SP, #+0]
        MOVW     R3,#+1985
        MOV      R2,R4
        MOVS     R1,#+1
        MOV      R0,R5
          CFI FunCall mbedtls_debug_print_msg
        BL       mbedtls_debug_print_msg
// 1986         mbedtls_ssl_send_alert_message( ssl, MBEDTLS_SSL_ALERT_LEVEL_FATAL,
// 1987                                         MBEDTLS_SSL_ALERT_MSG_HANDSHAKE_FAILURE );
        MOVS     R2,#+40
        MOVS     R1,#+2
        MOV      R0,R5
          CFI FunCall mbedtls_ssl_send_alert_message
        BL       mbedtls_ssl_send_alert_message
// 1988         return( MBEDTLS_ERR_SSL_NO_USABLE_CIPHERSUITE );
        LDR.W    R0,??DataTable27_1  ;; 0xffff9680
        B.N      ??ssl_parse_client_hello_8
// 1989     }
// 1990     else
// 1991     {
// 1992         MBEDTLS_SSL_DEBUG_MSG( 1, ( "got no ciphersuites in common" ) );
??ssl_parse_client_hello_78:
        LDR.W    R0,??DataTable27_2
        STR      R0,[SP, #+0]
        MOV      R3,#+1992
        MOV      R2,R4
        MOVS     R1,#+1
        MOV      R0,R5
          CFI FunCall mbedtls_debug_print_msg
        BL       mbedtls_debug_print_msg
// 1993         mbedtls_ssl_send_alert_message( ssl, MBEDTLS_SSL_ALERT_LEVEL_FATAL,
// 1994                                         MBEDTLS_SSL_ALERT_MSG_HANDSHAKE_FAILURE );
        MOVS     R2,#+40
        MOVS     R1,#+2
        MOV      R0,R5
          CFI FunCall mbedtls_ssl_send_alert_message
        BL       mbedtls_ssl_send_alert_message
// 1995         return( MBEDTLS_ERR_SSL_NO_CIPHER_CHOSEN );
        LDR.W    R0,??DataTable27_3  ;; 0xffff8c80
        B.N      ??ssl_parse_client_hello_8
// 1996     }
// 1997 
// 1998 have_ciphersuite:
// 1999     MBEDTLS_SSL_DEBUG_MSG( 2, ( "selected ciphersuite: %s", ciphersuite_info->name ) );
// 2000 
// 2001     ssl->session_negotiate->ciphersuite = ciphersuites[i];
// 2002     ssl->transform_negotiate->ciphersuite_info = ciphersuite_info;
// 2003 
// 2004     ssl->state++;
// 2005 
// 2006 #if defined(MBEDTLS_SSL_PROTO_DTLS)
// 2007     if( ssl->conf->transport == MBEDTLS_SSL_TRANSPORT_DATAGRAM )
// 2008         mbedtls_ssl_recv_flight_completed( ssl );
// 2009 #endif
// 2010 
// 2011     /* Debugging-only output for testsuite */
// 2012 #if defined(MBEDTLS_DEBUG_C)                         && \ 
// 2013     defined(MBEDTLS_SSL_PROTO_TLS1_2)                && \ 
// 2014     defined(MBEDTLS_KEY_EXCHANGE__WITH_CERT__ENABLED)
// 2015     if( ssl->minor_ver == MBEDTLS_SSL_MINOR_VERSION_3 )
// 2016     {
// 2017         mbedtls_pk_type_t sig_alg = mbedtls_ssl_get_ciphersuite_sig_alg( ciphersuite_info );
// 2018         if( sig_alg != MBEDTLS_PK_NONE )
// 2019         {
// 2020             mbedtls_md_type_t md_alg = mbedtls_ssl_sig_hash_set_find( &ssl->handshake->hash_algs,
// 2021                                                                   sig_alg );
// 2022             MBEDTLS_SSL_DEBUG_MSG( 3, ( "client hello v3, signature_algorithm ext: %d",
// 2023                                         mbedtls_ssl_hash_from_md_alg( md_alg ) ) );
// 2024         }
// 2025         else
// 2026         {
// 2027             MBEDTLS_SSL_DEBUG_MSG( 3, ( "no hash algorithm for signature algorithm "
// 2028                                         "%d - should not happen", sig_alg ) );
??ssl_parse_client_hello_79:
        MOVS     R0,#+0
        STR      R0,[SP, #+4]
        LDR.W    R0,??DataTable27_4
        STR      R0,[SP, #+0]
        MOVW     R3,#+2028
        MOV      R2,R4
        MOVS     R1,#+3
        MOV      R0,R5
          CFI FunCall mbedtls_debug_print_msg
        BL       mbedtls_debug_print_msg
// 2029         }
// 2030     }
// 2031 #endif
// 2032 
// 2033     MBEDTLS_SSL_DEBUG_MSG( 2, ( "<= parse client hello" ) );
??ssl_parse_client_hello_80:
        LDR.W    R0,??DataTable27_5
        STR      R0,[SP, #+0]
        MOVW     R3,#+2033
        MOV      R2,R4
        MOVS     R1,#+2
        MOV      R0,R5
          CFI FunCall mbedtls_debug_print_msg
        BL       mbedtls_debug_print_msg
// 2034 
// 2035     return( 0 );
        MOVS     R0,#+0
??ssl_parse_client_hello_8:
        ADD      SP,SP,#+44
          CFI CFA R13+36
        POP      {R4-R11,PC}      ;; return
          CFI CFA R13+80
??ssl_parse_client_hello_6:
        LDR.N    R0,??DataTable16_2
        STR      R0,[SP, #+0]
        MOVW     R3,#+1293
        MOV      R2,R4
        MOVS     R1,#+1
        MOV      R0,R6
          CFI FunCall mbedtls_debug_print_msg
        BL       mbedtls_debug_print_msg
        LDR.N    R0,??DataTable16_3  ;; 0xffff8700
        B.N      ??ssl_parse_client_hello_8
        Nop      
        DATA
??ssl_parse_client_hello_0:
        DATA32
        DC32     ?_0
        DC32     ?_32
        DC32     ?_34
        DC32     ?_35
        DC32     ?_36
        DC32     ?_37
        THUMB
??ssl_parse_client_hello_48:
        MOV      R5,R6
        MOV      R9,R8
        MOVS     R1,#+0
        LDR      R0,[SP, #+12]
        LDR      R2,[SP, #+16]
        ADD      R0,R0,R2
        ADDS     R2,R0,#+2
        MOV      R6,R11
        B.N      ??ssl_parse_client_hello_65
??ssl_parse_client_hello_66:
        CMP      R9,#+0
        BNE.N    ??ssl_parse_client_hello_81
        MOV      R8,#+4
        MOV      R1,R8
        MOV      R0,R5
          CFI FunCall mbedtls_ssl_check_sig_hash
        BL       mbedtls_ssl_check_sig_hash
        CMP      R0,#+0
        BEQ.N    ??ssl_parse_client_hello_82
        MOV      R8,#+0
??ssl_parse_client_hello_82:
        MOV      R1,R8
        LDR      R0,[R5, #+60]
          CFI FunCall mbedtls_ssl_sig_hash_set_const_hash
        BL       mbedtls_ssl_sig_hash_set_const_hash
??ssl_parse_client_hello_81:
        MOVS     R1,#+0
        LDR      R0,[SP, #+12]
        LDR      R2,[SP, #+16]
        ADD      R0,R0,R2
        ADDS     R2,R0,#+2
        B.N      ??ssl_parse_client_hello_68
??ssl_parse_client_hello_83:
        LDR      R0,[R0, #+4]
        STR      R0,[SP, #+4]
        LDR.W    R0,??DataTable27_6
        STR      R0,[SP, #+0]
        MOVW     R3,#+1999
        MOV      R2,R4
        MOVS     R1,#+2
        MOV      R0,R5
          CFI FunCall mbedtls_debug_print_msg
        BL       mbedtls_debug_print_msg
        LDR      R0,[R9, R7, LSL #+2]
        LDR      R1,[R5, #+56]
        STR      R0,[R1, #+0]
        LDR      R0,[SP, #+20]
        LDR      R1,[R5, #+76]
        STR      R0,[R1, #+0]
        LDR      R0,[R5, #+4]
        ADDS     R0,R0,#+1
        STR      R0,[R5, #+4]
        LDR      R0,[R5, #+0]
        LDR      R0,[R0, #+204]
        UBFX     R0,R0,#+1,#+1
        CMP      R0,#+0
        BEQ.N    ??ssl_parse_client_hello_84
        MOV      R0,R5
          CFI FunCall mbedtls_ssl_recv_flight_completed
        BL       mbedtls_ssl_recv_flight_completed
??ssl_parse_client_hello_84:
        LDR      R0,[R5, #+20]
        CMP      R0,#+3
        BNE.N    ??ssl_parse_client_hello_80
        LDR      R0,[SP, #+20]
          CFI FunCall mbedtls_ssl_get_ciphersuite_sig_alg
        BL       mbedtls_ssl_get_ciphersuite_sig_alg
        MOVS     R1,R0
        BEQ.N    ??ssl_parse_client_hello_79
        LDR      R0,[R5, #+60]
          CFI FunCall mbedtls_ssl_sig_hash_set_find
        BL       mbedtls_ssl_sig_hash_set_find
          CFI FunCall mbedtls_ssl_hash_from_md_alg
        BL       mbedtls_ssl_hash_from_md_alg
        STR      R0,[SP, #+4]
        LDR.W    R0,??DataTable27_7
        STR      R0,[SP, #+0]
        MOVW     R3,#+2023
        MOV      R2,R4
        MOVS     R1,#+3
        MOV      R0,R5
          CFI FunCall mbedtls_debug_print_msg
        BL       mbedtls_debug_print_msg
        B.N      ??ssl_parse_client_hello_80
??ssl_parse_client_hello_85:
        MOV      R0,R11
        MOV      R1,R9
        ADDS     R7,R7,#+1
??ssl_parse_client_hello_76:
        LDR      R2,[R1, R7, LSL #+2]
        CMP      R2,#+0
        BEQ.W    ??ssl_parse_client_hello_77
        MOV      R10,#+0
        LDR      R2,[SP, #+12]
        LDR      R3,[SP, #+16]
        ADD      R2,R2,R3
        ADD      R8,R2,#+2
        MOV      R11,R0
        MOV      R9,R1
??ssl_parse_client_hello_86:
        CMP      R10,R6
        BCS.N    ??ssl_parse_client_hello_85
        LDRB     R0,[R8, #+0]
        LDR      R1,[R9, R7, LSL #+2]
        UBFX     R1,R1,#+8,#+8
        CMP      R0,R1
        BNE.N    ??ssl_parse_client_hello_87
        LDRB     R0,[R8, #+1]
        LDRB     R1,[R9, R7, LSL #+2]
        CMP      R0,R1
        BNE.N    ??ssl_parse_client_hello_87
        MOV      R11,#+1
        ADD      R2,SP,#+20
        LDR      R1,[R9, R7, LSL #+2]
        MOV      R0,R5
          CFI FunCall ssl_ciphersuite_match
        BL       ssl_ciphersuite_match
        CMP      R0,#+0
        BNE.W    ??ssl_parse_client_hello_8
        LDR      R0,[SP, #+20]
        CMP      R0,#+0
        BNE.N    ??ssl_parse_client_hello_83
??ssl_parse_client_hello_87:
        ADD      R10,R10,#+2
        ADD      R8,R8,#+2
        B.N      ??ssl_parse_client_hello_86
// 2036 }
          CFI EndBlock cfiBlock28
// 2037 
// 2038 #if defined(MBEDTLS_SSL_TRUNCATED_HMAC)

        SECTION `.text`:CODE:NOROOT(1)
          CFI Block cfiBlock29 Using cfiCommon0
          CFI Function ssl_write_truncated_hmac_ext
        THUMB
// 2039 static void ssl_write_truncated_hmac_ext( mbedtls_ssl_context *ssl,
// 2040                                           unsigned char *buf,
// 2041                                           size_t *olen )
// 2042 {
ssl_write_truncated_hmac_ext:
        PUSH     {R3-R5,LR}
          CFI R14 Frame(CFA, -4)
          CFI R5 Frame(CFA, -8)
          CFI R4 Frame(CFA, -12)
          CFI CFA R13+16
        MOV      R5,R1
        MOV      R4,R2
// 2043     unsigned char *p = buf;
// 2044 
// 2045     if( ssl->session_negotiate->trunc_hmac == MBEDTLS_SSL_TRUNC_HMAC_DISABLED )
        LDR      R1,[R0, #+56]
        LDR      R1,[R1, #+116]
        CMP      R1,#+0
        BNE.N    ??ssl_write_truncated_hmac_ext_0
// 2046     {
// 2047         *olen = 0;
        MOVS     R0,#+0
        STR      R0,[R4, #+0]
// 2048         return;
        POP      {R0,R4,R5,PC}
// 2049     }
// 2050 
// 2051     MBEDTLS_SSL_DEBUG_MSG( 3, ( "server hello, adding truncated hmac extension" ) );
??ssl_write_truncated_hmac_ext_0:
        LDR.W    R1,??DataTable27_8
        STR      R1,[SP, #+0]
        MOVW     R3,#+2051
        LDR.W    R2,??DataTable27_9
        MOVS     R1,#+3
          CFI FunCall mbedtls_debug_print_msg
        BL       mbedtls_debug_print_msg
// 2052 
// 2053     *p++ = (unsigned char)( ( MBEDTLS_TLS_EXT_TRUNCATED_HMAC >> 8 ) & 0xFF );
        MOVS     R0,#+0
        STRB     R0,[R5, #+0]
// 2054     *p++ = (unsigned char)( ( MBEDTLS_TLS_EXT_TRUNCATED_HMAC      ) & 0xFF );
        MOVS     R0,#+4
        STRB     R0,[R5, #+1]
// 2055 
// 2056     *p++ = 0x00;
        MOVS     R0,#+0
        STRB     R0,[R5, #+2]
// 2057     *p++ = 0x00;
        STRB     R0,[R5, #+3]
// 2058 
// 2059     *olen = 4;
        MOVS     R0,#+4
        STR      R0,[R4, #+0]
// 2060 }
        POP      {R0,R4,R5,PC}    ;; return
          CFI EndBlock cfiBlock29

        SECTION `.text`:CODE:NOROOT(2)
        SECTION_TYPE SHT_PROGBITS, 0
        DATA
??DataTable16:
        DATA32
        DC32     ?_38

        SECTION `.text`:CODE:NOROOT(2)
        SECTION_TYPE SHT_PROGBITS, 0
        DATA
??DataTable16_1:
        DATA32
        DC32     ?_33

        SECTION `.text`:CODE:NOROOT(2)
        SECTION_TYPE SHT_PROGBITS, 0
        DATA
??DataTable16_2:
        DATA32
        DC32     ?_2

        SECTION `.text`:CODE:NOROOT(2)
        SECTION_TYPE SHT_PROGBITS, 0
        DATA
??DataTable16_3:
        DATA32
        DC32     0xffff8700

        SECTION `.text`:CODE:NOROOT(2)
        SECTION_TYPE SHT_PROGBITS, 0
        DATA
??DataTable16_4:
        DATA32
        DC32     ?_39

        SECTION `.text`:CODE:NOROOT(2)
        SECTION_TYPE SHT_PROGBITS, 0
        DATA
??DataTable16_5:
        DATA32
        DC32     ?_40
// 2061 #endif /* MBEDTLS_SSL_TRUNCATED_HMAC */
// 2062 
// 2063 #if defined(MBEDTLS_SSL_ENCRYPT_THEN_MAC)

        SECTION `.text`:CODE:NOROOT(1)
          CFI Block cfiBlock30 Using cfiCommon0
          CFI Function ssl_write_encrypt_then_mac_ext
        THUMB
// 2064 static void ssl_write_encrypt_then_mac_ext( mbedtls_ssl_context *ssl,
// 2065                                             unsigned char *buf,
// 2066                                             size_t *olen )
// 2067 {
ssl_write_encrypt_then_mac_ext:
        PUSH     {R2-R6,LR}
          CFI R14 Frame(CFA, -4)
          CFI R6 Frame(CFA, -8)
          CFI R5 Frame(CFA, -12)
          CFI R4 Frame(CFA, -16)
          CFI CFA R13+24
        MOV      R4,R0
        MOV      R5,R1
        MOV      R6,R2
// 2068     unsigned char *p = buf;
// 2069     const mbedtls_ssl_ciphersuite_t *suite = NULL;
// 2070     const mbedtls_cipher_info_t *cipher = NULL;
// 2071 
// 2072     if( ssl->session_negotiate->encrypt_then_mac == MBEDTLS_SSL_ETM_DISABLED ||
// 2073         ssl->minor_ver == MBEDTLS_SSL_MINOR_VERSION_0 )
        LDR      R0,[R4, #+56]
        LDR      R0,[R0, #+120]
        CMP      R0,#+0
        BEQ.N    ??ssl_write_encrypt_then_mac_ext_0
        LDR      R0,[R4, #+20]
        CMP      R0,#+0
        BEQ.N    ??ssl_write_encrypt_then_mac_ext_0
// 2074     {
// 2075         *olen = 0;
// 2076         return;
// 2077     }
// 2078 
// 2079     /*
// 2080      * RFC 7366: "If a server receives an encrypt-then-MAC request extension
// 2081      * from a client and then selects a stream or Authenticated Encryption
// 2082      * with Associated Data (AEAD) ciphersuite, it MUST NOT send an
// 2083      * encrypt-then-MAC response extension back to the client."
// 2084      */
// 2085     if( ( suite = mbedtls_ssl_ciphersuite_from_id(
// 2086                     ssl->session_negotiate->ciphersuite ) ) == NULL ||
// 2087         ( cipher = mbedtls_cipher_info_from_type( suite->cipher ) ) == NULL ||
// 2088         cipher->mode != MBEDTLS_MODE_CBC )
        LDR      R0,[R4, #+56]
        LDR      R0,[R0, #+0]
          CFI FunCall mbedtls_ssl_ciphersuite_from_id
        BL       mbedtls_ssl_ciphersuite_from_id
        CMP      R0,#+0
        BEQ.N    ??ssl_write_encrypt_then_mac_ext_0
        LDRB     R0,[R0, #+8]
          CFI FunCall mbedtls_cipher_info_from_type
        BL       mbedtls_cipher_info_from_type
        CMP      R0,#+0
        BEQ.N    ??ssl_write_encrypt_then_mac_ext_0
        LDRB     R0,[R0, #+1]
        CMP      R0,#+2
        BEQ.N    ??ssl_write_encrypt_then_mac_ext_1
// 2089     {
// 2090         *olen = 0;
??ssl_write_encrypt_then_mac_ext_0:
        MOVS     R0,#+0
        STR      R0,[R6, #+0]
// 2091         return;
        POP      {R0,R1,R4-R6,PC}
// 2092     }
// 2093 
// 2094     MBEDTLS_SSL_DEBUG_MSG( 3, ( "server hello, adding encrypt then mac extension" ) );
??ssl_write_encrypt_then_mac_ext_1:
        LDR.W    R0,??DataTable27_10
        STR      R0,[SP, #+0]
        MOVW     R3,#+2094
        LDR.W    R2,??DataTable27_9
        MOVS     R1,#+3
        MOV      R0,R4
          CFI FunCall mbedtls_debug_print_msg
        BL       mbedtls_debug_print_msg
// 2095 
// 2096     *p++ = (unsigned char)( ( MBEDTLS_TLS_EXT_ENCRYPT_THEN_MAC >> 8 ) & 0xFF );
        MOVS     R0,#+0
        STRB     R0,[R5, #+0]
// 2097     *p++ = (unsigned char)( ( MBEDTLS_TLS_EXT_ENCRYPT_THEN_MAC      ) & 0xFF );
        MOVS     R0,#+22
        STRB     R0,[R5, #+1]
// 2098 
// 2099     *p++ = 0x00;
        MOVS     R0,#+0
        STRB     R0,[R5, #+2]
// 2100     *p++ = 0x00;
        STRB     R0,[R5, #+3]
// 2101 
// 2102     *olen = 4;
        MOVS     R0,#+4
        STR      R0,[R6, #+0]
// 2103 }
        POP      {R0,R1,R4-R6,PC}  ;; return
          CFI EndBlock cfiBlock30

        SECTION `.text`:CODE:NOROOT(2)
        SECTION_TYPE SHT_PROGBITS, 0
        DATA
??DataTable17:
        DATA32
        DC32     ?_41
// 2104 #endif /* MBEDTLS_SSL_ENCRYPT_THEN_MAC */
// 2105 
// 2106 #if defined(MBEDTLS_SSL_EXTENDED_MASTER_SECRET)

        SECTION `.text`:CODE:NOROOT(1)
          CFI Block cfiBlock31 Using cfiCommon0
          CFI Function ssl_write_extended_ms_ext
        THUMB
// 2107 static void ssl_write_extended_ms_ext( mbedtls_ssl_context *ssl,
// 2108                                        unsigned char *buf,
// 2109                                        size_t *olen )
// 2110 {
ssl_write_extended_ms_ext:
        PUSH     {R3-R5,LR}
          CFI R14 Frame(CFA, -4)
          CFI R5 Frame(CFA, -8)
          CFI R4 Frame(CFA, -12)
          CFI CFA R13+16
        MOV      R5,R1
        MOV      R4,R2
// 2111     unsigned char *p = buf;
// 2112 
// 2113     if( ssl->handshake->extended_ms == MBEDTLS_SSL_EXTENDED_MS_DISABLED ||
// 2114         ssl->minor_ver == MBEDTLS_SSL_MINOR_VERSION_0 )
        LDR      R1,[R0, #+60]
        LDR      R1,[R1, #+1748]
        CMP      R1,#+0
        BEQ.N    ??ssl_write_extended_ms_ext_0
        LDR      R1,[R0, #+20]
        CMP      R1,#+0
        BNE.N    ??ssl_write_extended_ms_ext_1
// 2115     {
// 2116         *olen = 0;
??ssl_write_extended_ms_ext_0:
        MOVS     R0,#+0
        STR      R0,[R4, #+0]
// 2117         return;
        POP      {R0,R4,R5,PC}
// 2118     }
// 2119 
// 2120     MBEDTLS_SSL_DEBUG_MSG( 3, ( "server hello, adding extended master secret "
// 2121                         "extension" ) );
??ssl_write_extended_ms_ext_1:
        LDR.W    R1,??DataTable27_11
        STR      R1,[SP, #+0]
        MOVW     R3,#+2121
        LDR.W    R2,??DataTable27_9
        MOVS     R1,#+3
          CFI FunCall mbedtls_debug_print_msg
        BL       mbedtls_debug_print_msg
// 2122 
// 2123     *p++ = (unsigned char)( ( MBEDTLS_TLS_EXT_EXTENDED_MASTER_SECRET >> 8 ) & 0xFF );
        MOVS     R0,#+0
        STRB     R0,[R5, #+0]
// 2124     *p++ = (unsigned char)( ( MBEDTLS_TLS_EXT_EXTENDED_MASTER_SECRET      ) & 0xFF );
        MOVS     R0,#+23
        STRB     R0,[R5, #+1]
// 2125 
// 2126     *p++ = 0x00;
        MOVS     R0,#+0
        STRB     R0,[R5, #+2]
// 2127     *p++ = 0x00;
        STRB     R0,[R5, #+3]
// 2128 
// 2129     *olen = 4;
        MOVS     R0,#+4
        STR      R0,[R4, #+0]
// 2130 }
        POP      {R0,R4,R5,PC}    ;; return
          CFI EndBlock cfiBlock31
// 2131 #endif /* MBEDTLS_SSL_EXTENDED_MASTER_SECRET */
// 2132 
// 2133 #if defined(MBEDTLS_SSL_SESSION_TICKETS)

        SECTION `.text`:CODE:NOROOT(1)
          CFI Block cfiBlock32 Using cfiCommon0
          CFI Function ssl_write_session_ticket_ext
        THUMB
// 2134 static void ssl_write_session_ticket_ext( mbedtls_ssl_context *ssl,
// 2135                                           unsigned char *buf,
// 2136                                           size_t *olen )
// 2137 {
ssl_write_session_ticket_ext:
        PUSH     {R3-R5,LR}
          CFI R14 Frame(CFA, -4)
          CFI R5 Frame(CFA, -8)
          CFI R4 Frame(CFA, -12)
          CFI CFA R13+16
        MOV      R5,R1
        MOV      R4,R2
// 2138     unsigned char *p = buf;
// 2139 
// 2140     if( ssl->handshake->new_session_ticket == 0 )
        LDR      R1,[R0, #+60]
        LDR      R1,[R1, #+1744]
        CMP      R1,#+0
        BNE.N    ??ssl_write_session_ticket_ext_0
// 2141     {
// 2142         *olen = 0;
        MOVS     R0,#+0
        STR      R0,[R4, #+0]
// 2143         return;
        POP      {R0,R4,R5,PC}
// 2144     }
// 2145 
// 2146     MBEDTLS_SSL_DEBUG_MSG( 3, ( "server hello, adding session ticket extension" ) );
??ssl_write_session_ticket_ext_0:
        LDR.W    R1,??DataTable27_12
        STR      R1,[SP, #+0]
        MOVW     R3,#+2146
        LDR.W    R2,??DataTable27_9
        MOVS     R1,#+3
          CFI FunCall mbedtls_debug_print_msg
        BL       mbedtls_debug_print_msg
// 2147 
// 2148     *p++ = (unsigned char)( ( MBEDTLS_TLS_EXT_SESSION_TICKET >> 8 ) & 0xFF );
        MOVS     R0,#+0
        STRB     R0,[R5, #+0]
// 2149     *p++ = (unsigned char)( ( MBEDTLS_TLS_EXT_SESSION_TICKET      ) & 0xFF );
        MOVS     R0,#+35
        STRB     R0,[R5, #+1]
// 2150 
// 2151     *p++ = 0x00;
        MOVS     R0,#+0
        STRB     R0,[R5, #+2]
// 2152     *p++ = 0x00;
        STRB     R0,[R5, #+3]
// 2153 
// 2154     *olen = 4;
        MOVS     R0,#+4
        STR      R0,[R4, #+0]
// 2155 }
        POP      {R0,R4,R5,PC}    ;; return
          CFI EndBlock cfiBlock32

        SECTION `.text`:CODE:NOROOT(2)
        SECTION_TYPE SHT_PROGBITS, 0
        DATA
??DataTable19:
        DATA32
        DC32     ?_42

        SECTION `.text`:CODE:NOROOT(2)
        SECTION_TYPE SHT_PROGBITS, 0
        DATA
??DataTable19_1:
        DATA32
        DC32     ?_43
// 2156 #endif /* MBEDTLS_SSL_SESSION_TICKETS */
// 2157 

        SECTION `.text`:CODE:NOROOT(1)
          CFI Block cfiBlock33 Using cfiCommon0
          CFI Function ssl_write_renegotiation_ext
        THUMB
// 2158 static void ssl_write_renegotiation_ext( mbedtls_ssl_context *ssl,
// 2159                                          unsigned char *buf,
// 2160                                          size_t *olen )
// 2161 {
ssl_write_renegotiation_ext:
        PUSH     {R3-R7,LR}
          CFI R14 Frame(CFA, -4)
          CFI R7 Frame(CFA, -8)
          CFI R6 Frame(CFA, -12)
          CFI R5 Frame(CFA, -16)
          CFI R4 Frame(CFA, -20)
          CFI CFA R13+24
        MOV      R6,R0
        MOV      R5,R1
        MOV      R4,R2
// 2162     unsigned char *p = buf;
// 2163 
// 2164     if( ssl->secure_renegotiation != MBEDTLS_SSL_SECURE_RENEGOTIATION )
        LDR      R0,[R6, #+244]
        CMP      R0,#+1
        BEQ.N    ??ssl_write_renegotiation_ext_0
// 2165     {
// 2166         *olen = 0;
        MOVS     R0,#+0
        STR      R0,[R4, #+0]
// 2167         return;
        POP      {R0,R4-R7,PC}
// 2168     }
// 2169 
// 2170     MBEDTLS_SSL_DEBUG_MSG( 3, ( "server hello, secure renegotiation extension" ) );
??ssl_write_renegotiation_ext_0:
        LDR.W    R0,??DataTable27_13
        STR      R0,[SP, #+0]
        MOVW     R3,#+2170
        LDR.W    R2,??DataTable27_9
        MOVS     R1,#+3
        MOV      R0,R6
          CFI FunCall mbedtls_debug_print_msg
        BL       mbedtls_debug_print_msg
// 2171 
// 2172     *p++ = (unsigned char)( ( MBEDTLS_TLS_EXT_RENEGOTIATION_INFO >> 8 ) & 0xFF );
        MOVS     R0,#+255
        STRB     R0,[R5, #+0]
// 2173     *p++ = (unsigned char)( ( MBEDTLS_TLS_EXT_RENEGOTIATION_INFO      ) & 0xFF );
        MOVS     R0,#+1
        STRB     R0,[R5, #+1]
// 2174 
// 2175 #if defined(MBEDTLS_SSL_RENEGOTIATION)
// 2176     if( ssl->renego_status != MBEDTLS_SSL_INITIAL_HANDSHAKE )
        LDR      R0,[R6, #+8]
        CMP      R0,#+0
        BEQ.N    ??ssl_write_renegotiation_ext_1
// 2177     {
// 2178         *p++ = 0x00;
        MOVS     R0,#+0
        STRB     R0,[R5, #+2]
// 2179         *p++ = ( ssl->verify_data_len * 2 + 1 ) & 0xFF;
        LDR      R0,[R6, #+248]
        LSLS     R0,R0,#+1
        ADDS     R0,R0,#+1
        STRB     R0,[R5, #+3]
// 2180         *p++ = ssl->verify_data_len * 2 & 0xFF;
        LDR      R0,[R6, #+248]
        LSLS     R0,R0,#+1
        STRB     R0,[R5, #+4]
        ADDS     R7,R5,#+5
// 2181 
// 2182         memcpy( p, ssl->peer_verify_data, ssl->verify_data_len );
        LDR      R2,[R6, #+248]
        ADD      R1,R6,#+264
        MOV      R0,R7
          CFI FunCall __aeabi_memcpy
        BL       __aeabi_memcpy
// 2183         p += ssl->verify_data_len;
        LDR      R0,[R6, #+248]
        ADD      R7,R7,R0
// 2184         memcpy( p, ssl->own_verify_data, ssl->verify_data_len );
        MOV      R2,R0
        ADD      R1,R6,#+252
        MOV      R0,R7
          CFI FunCall __aeabi_memcpy
        BL       __aeabi_memcpy
// 2185         p += ssl->verify_data_len;
        LDR      R0,[R6, #+248]
        ADD      R0,R7,R0
        B.N      ??ssl_write_renegotiation_ext_2
// 2186     }
// 2187     else
// 2188 #endif /* MBEDTLS_SSL_RENEGOTIATION */
// 2189     {
// 2190         *p++ = 0x00;
??ssl_write_renegotiation_ext_1:
        MOVS     R0,#+0
        STRB     R0,[R5, #+2]
// 2191         *p++ = 0x01;
        MOVS     R0,#+1
        STRB     R0,[R5, #+3]
// 2192         *p++ = 0x00;
        MOVS     R0,#+0
        STRB     R0,[R5, #+4]
        ADDS     R0,R5,#+5
// 2193     }
// 2194 
// 2195     *olen = p - buf;
??ssl_write_renegotiation_ext_2:
        SUBS     R5,R0,R5
        STR      R5,[R4, #+0]
// 2196 }
        POP      {R0,R4-R7,PC}    ;; return
          CFI EndBlock cfiBlock33

        SECTION `.text`:CODE:NOROOT(2)
        SECTION_TYPE SHT_PROGBITS, 0
        DATA
??DataTable20:
        DATA32
        DC32     0xffff8f80

        SECTION `.text`:CODE:NOROOT(2)
        SECTION_TYPE SHT_PROGBITS, 0
        DATA
??DataTable20_1:
        DATA32
        DC32     ?_44
// 2197 
// 2198 #if defined(MBEDTLS_SSL_MAX_FRAGMENT_LENGTH)

        SECTION `.text`:CODE:NOROOT(1)
          CFI Block cfiBlock34 Using cfiCommon0
          CFI Function ssl_write_max_fragment_length_ext
        THUMB
// 2199 static void ssl_write_max_fragment_length_ext( mbedtls_ssl_context *ssl,
// 2200                                                unsigned char *buf,
// 2201                                                size_t *olen )
// 2202 {
ssl_write_max_fragment_length_ext:
        PUSH     {R2-R6,LR}
          CFI R14 Frame(CFA, -4)
          CFI R6 Frame(CFA, -8)
          CFI R5 Frame(CFA, -12)
          CFI R4 Frame(CFA, -16)
          CFI CFA R13+24
        MOV      R5,R0
        MOV      R6,R1
        MOV      R4,R2
// 2203     unsigned char *p = buf;
// 2204 
// 2205     if( ssl->session_negotiate->mfl_code == MBEDTLS_SSL_MAX_FRAG_LEN_NONE )
        LDR      R0,[R5, #+56]
        LDRB     R0,[R0, #+112]
        CMP      R0,#+0
        BNE.N    ??ssl_write_max_fragment_length_ext_0
// 2206     {
// 2207         *olen = 0;
        MOVS     R0,#+0
        STR      R0,[R4, #+0]
// 2208         return;
        POP      {R0,R1,R4-R6,PC}
// 2209     }
// 2210 
// 2211     MBEDTLS_SSL_DEBUG_MSG( 3, ( "server hello, max_fragment_length extension" ) );
??ssl_write_max_fragment_length_ext_0:
        LDR.W    R0,??DataTable27_14
        STR      R0,[SP, #+0]
        MOVW     R3,#+2211
        LDR.W    R2,??DataTable27_9
        MOVS     R1,#+3
        MOV      R0,R5
          CFI FunCall mbedtls_debug_print_msg
        BL       mbedtls_debug_print_msg
// 2212 
// 2213     *p++ = (unsigned char)( ( MBEDTLS_TLS_EXT_MAX_FRAGMENT_LENGTH >> 8 ) & 0xFF );
        MOVS     R0,#+0
        STRB     R0,[R6, #+0]
// 2214     *p++ = (unsigned char)( ( MBEDTLS_TLS_EXT_MAX_FRAGMENT_LENGTH      ) & 0xFF );
        MOVS     R0,#+1
        STRB     R0,[R6, #+1]
// 2215 
// 2216     *p++ = 0x00;
        MOVS     R0,#+0
        STRB     R0,[R6, #+2]
// 2217     *p++ = 1;
        MOVS     R0,#+1
        STRB     R0,[R6, #+3]
// 2218 
// 2219     *p++ = ssl->session_negotiate->mfl_code;
        LDR      R0,[R5, #+56]
        LDRB     R0,[R0, #+112]
        STRB     R0,[R6, #+4]
// 2220 
// 2221     *olen = 5;
        MOVS     R0,#+5
        STR      R0,[R4, #+0]
// 2222 }
        POP      {R0,R1,R4-R6,PC}  ;; return
          CFI EndBlock cfiBlock34
// 2223 #endif /* MBEDTLS_SSL_MAX_FRAGMENT_LENGTH */
// 2224 
// 2225 #if defined(MBEDTLS_ECDH_C) || defined(MBEDTLS_ECDSA_C) || \ 
// 2226     defined(MBEDTLS_KEY_EXCHANGE_ECJPAKE_ENABLED)

        SECTION `.text`:CODE:NOROOT(1)
          CFI Block cfiBlock35 Using cfiCommon0
          CFI Function ssl_write_supported_point_formats_ext
        THUMB
// 2227 static void ssl_write_supported_point_formats_ext( mbedtls_ssl_context *ssl,
// 2228                                                    unsigned char *buf,
// 2229                                                    size_t *olen )
// 2230 {
ssl_write_supported_point_formats_ext:
        PUSH     {R3-R5,LR}
          CFI R14 Frame(CFA, -4)
          CFI R5 Frame(CFA, -8)
          CFI R4 Frame(CFA, -12)
          CFI CFA R13+16
        MOV      R5,R1
        MOV      R4,R2
// 2231     unsigned char *p = buf;
// 2232     ((void) ssl);
// 2233 
// 2234     if( ( ssl->handshake->cli_exts &
// 2235           MBEDTLS_TLS_EXT_SUPPORTED_POINT_FORMATS_PRESENT ) == 0 )
        LDR      R1,[R0, #+60]
        LDRB     R1,[R1, #+1740]
        LSLS     R1,R1,#+31
        BMI.N    ??ssl_write_supported_point_formats_ext_0
// 2236     {
// 2237         *olen = 0;
        MOVS     R0,#+0
        STR      R0,[R4, #+0]
// 2238         return;
        POP      {R0,R4,R5,PC}
// 2239     }
// 2240 
// 2241     MBEDTLS_SSL_DEBUG_MSG( 3, ( "server hello, supported_point_formats extension" ) );
??ssl_write_supported_point_formats_ext_0:
        LDR.W    R1,??DataTable27_15
        STR      R1,[SP, #+0]
        MOVW     R3,#+2241
        LDR.W    R2,??DataTable27_9
        MOVS     R1,#+3
          CFI FunCall mbedtls_debug_print_msg
        BL       mbedtls_debug_print_msg
// 2242 
// 2243     *p++ = (unsigned char)( ( MBEDTLS_TLS_EXT_SUPPORTED_POINT_FORMATS >> 8 ) & 0xFF );
        MOVS     R0,#+0
        STRB     R0,[R5, #+0]
// 2244     *p++ = (unsigned char)( ( MBEDTLS_TLS_EXT_SUPPORTED_POINT_FORMATS      ) & 0xFF );
        MOVS     R0,#+11
        STRB     R0,[R5, #+1]
// 2245 
// 2246     *p++ = 0x00;
        MOVS     R0,#+0
        STRB     R0,[R5, #+2]
// 2247     *p++ = 2;
        MOVS     R0,#+2
        STRB     R0,[R5, #+3]
// 2248 
// 2249     *p++ = 1;
        MOVS     R0,#+1
        STRB     R0,[R5, #+4]
// 2250     *p++ = MBEDTLS_ECP_PF_UNCOMPRESSED;
        MOVS     R0,#+0
        STRB     R0,[R5, #+5]
// 2251 
// 2252     *olen = 6;
        MOVS     R0,#+6
        STR      R0,[R4, #+0]
// 2253 }
        POP      {R0,R4,R5,PC}    ;; return
          CFI EndBlock cfiBlock35

        SECTION `.text`:CODE:NOROOT(2)
        SECTION_TYPE SHT_PROGBITS, 0
        DATA
??DataTable22:
        DATA32
        DC32     ?_45

        SECTION `.text`:CODE:NOROOT(2)
        SECTION_TYPE SHT_PROGBITS, 0
        DATA
??DataTable22_1:
        DATA32
        DC32     0xffff9180

        SECTION `.text`:CODE:NOROOT(2)
        SECTION_TYPE SHT_PROGBITS, 0
        DATA
??DataTable22_2:
        DATA32
        DC32     ?_46
// 2254 #endif /* MBEDTLS_ECDH_C || MBEDTLS_ECDSA_C || MBEDTLS_KEY_EXCHANGE_ECJPAKE_ENABLED */
// 2255 
// 2256 #if defined(MBEDTLS_KEY_EXCHANGE_ECJPAKE_ENABLED)
// 2257 static void ssl_write_ecjpake_kkpp_ext( mbedtls_ssl_context *ssl,
// 2258                                         unsigned char *buf,
// 2259                                         size_t *olen )
// 2260 {
// 2261     int ret;
// 2262     unsigned char *p = buf;
// 2263     const unsigned char *end = ssl->out_msg + MBEDTLS_SSL_OUT_CONTENT_LEN;
// 2264     size_t kkpp_len;
// 2265 
// 2266     *olen = 0;
// 2267 
// 2268     /* Skip costly computation if not needed */
// 2269     if( ssl->transform_negotiate->ciphersuite_info->key_exchange !=
// 2270         MBEDTLS_KEY_EXCHANGE_ECJPAKE )
// 2271         return;
// 2272 
// 2273     MBEDTLS_SSL_DEBUG_MSG( 3, ( "server hello, ecjpake kkpp extension" ) );
// 2274 
// 2275     if( end - p < 4 )
// 2276     {
// 2277         MBEDTLS_SSL_DEBUG_MSG( 1, ( "buffer too small" ) );
// 2278         return;
// 2279     }
// 2280 
// 2281     *p++ = (unsigned char)( ( MBEDTLS_TLS_EXT_ECJPAKE_KKPP >> 8 ) & 0xFF );
// 2282     *p++ = (unsigned char)( ( MBEDTLS_TLS_EXT_ECJPAKE_KKPP      ) & 0xFF );
// 2283 
// 2284     ret = mbedtls_ecjpake_write_round_one( &ssl->handshake->ecjpake_ctx,
// 2285                                         p + 2, end - p - 2, &kkpp_len,
// 2286                                         ssl->conf->f_rng, ssl->conf->p_rng );
// 2287     if( ret != 0 )
// 2288     {
// 2289         MBEDTLS_SSL_DEBUG_RET( 1 , "mbedtls_ecjpake_write_round_one", ret );
// 2290         return;
// 2291     }
// 2292 
// 2293     *p++ = (unsigned char)( ( kkpp_len >> 8 ) & 0xFF );
// 2294     *p++ = (unsigned char)( ( kkpp_len      ) & 0xFF );
// 2295 
// 2296     *olen = kkpp_len + 4;
// 2297 }
// 2298 #endif /* MBEDTLS_KEY_EXCHANGE_ECJPAKE_ENABLED */
// 2299 
// 2300 #if defined(MBEDTLS_SSL_ALPN )

        SECTION `.text`:CODE:NOROOT(1)
          CFI Block cfiBlock36 Using cfiCommon0
          CFI Function ssl_write_alpn_ext
        THUMB
// 2301 static void ssl_write_alpn_ext( mbedtls_ssl_context *ssl,
// 2302                                 unsigned char *buf, size_t *olen )
// 2303 {
ssl_write_alpn_ext:
        PUSH     {R2-R6,LR}
          CFI R14 Frame(CFA, -4)
          CFI R6 Frame(CFA, -8)
          CFI R5 Frame(CFA, -12)
          CFI R4 Frame(CFA, -16)
          CFI CFA R13+24
        MOV      R5,R0
        MOV      R6,R1
        MOV      R4,R2
// 2304     if( ssl->alpn_chosen == NULL )
        LDR      R0,[R5, #+232]
        CMP      R0,#+0
        BNE.N    ??ssl_write_alpn_ext_0
// 2305     {
// 2306         *olen = 0;
        MOVS     R0,#+0
        STR      R0,[R4, #+0]
// 2307         return;
        POP      {R0,R1,R4-R6,PC}
// 2308     }
// 2309 
// 2310     MBEDTLS_SSL_DEBUG_MSG( 3, ( "server hello, adding alpn extension" ) );
??ssl_write_alpn_ext_0:
        LDR.W    R0,??DataTable27_16
        STR      R0,[SP, #+0]
        MOVW     R3,#+2310
        LDR.W    R2,??DataTable27_9
        MOVS     R1,#+3
        MOV      R0,R5
          CFI FunCall mbedtls_debug_print_msg
        BL       mbedtls_debug_print_msg
// 2311 
// 2312     /*
// 2313      * 0 . 1    ext identifier
// 2314      * 2 . 3    ext length
// 2315      * 4 . 5    protocol list length
// 2316      * 6 . 6    protocol name length
// 2317      * 7 . 7+n  protocol name
// 2318      */
// 2319     buf[0] = (unsigned char)( ( MBEDTLS_TLS_EXT_ALPN >> 8 ) & 0xFF );
        MOVS     R0,#+0
        STRB     R0,[R6, #+0]
// 2320     buf[1] = (unsigned char)( ( MBEDTLS_TLS_EXT_ALPN      ) & 0xFF );
        MOVS     R0,#+16
        STRB     R0,[R6, #+1]
// 2321 
// 2322     *olen = 7 + strlen( ssl->alpn_chosen );
        LDR      R0,[R5, #+232]
          CFI FunCall strlen
        BL       strlen
        ADDS     R0,R0,#+7
        STR      R0,[R4, #+0]
// 2323 
// 2324     buf[2] = (unsigned char)( ( ( *olen - 4 ) >> 8 ) & 0xFF );
        SUBS     R0,R0,#+4
        LSRS     R0,R0,#+8
        STRB     R0,[R6, #+2]
// 2325     buf[3] = (unsigned char)( ( ( *olen - 4 )      ) & 0xFF );
        LDR      R0,[R4, #+0]
        SUBS     R0,R0,#+4
        STRB     R0,[R6, #+3]
// 2326 
// 2327     buf[4] = (unsigned char)( ( ( *olen - 6 ) >> 8 ) & 0xFF );
        LDR      R0,[R4, #+0]
        SUBS     R0,R0,#+6
        LSRS     R0,R0,#+8
        STRB     R0,[R6, #+4]
// 2328     buf[5] = (unsigned char)( ( ( *olen - 6 )      ) & 0xFF );
        LDR      R0,[R4, #+0]
        SUBS     R0,R0,#+6
        STRB     R0,[R6, #+5]
// 2329 
// 2330     buf[6] = (unsigned char)( ( ( *olen - 7 )      ) & 0xFF );
        LDR      R0,[R4, #+0]
        SUBS     R0,R0,#+7
        STRB     R0,[R6, #+6]
// 2331 
// 2332     memcpy( buf + 7, ssl->alpn_chosen, *olen - 7 );
        LDR      R2,[R4, #+0]
        SUBS     R2,R2,#+7
        LDR      R1,[R5, #+232]
        ADDS     R0,R6,#+7
        ADD      SP,SP,#+8
          CFI CFA R13+16
        POP      {R4-R6,LR}
          CFI R4 SameValue
          CFI R5 SameValue
          CFI R6 SameValue
          CFI R14 SameValue
          CFI CFA R13+0
          CFI FunCall __aeabi_memcpy
        B.W      __aeabi_memcpy
// 2333 }
          CFI EndBlock cfiBlock36

        SECTION `.text`:CODE:NOROOT(2)
        SECTION_TYPE SHT_PROGBITS, 0
        DATA
??DataTable23:
        DATA32
        DC32     ?_47

        SECTION `.text`:CODE:NOROOT(2)
        SECTION_TYPE SHT_PROGBITS, 0
        DATA
??DataTable23_1:
        DATA32
        DC32     ?_48

        SECTION `.text`:CODE:NOROOT(2)
        SECTION_TYPE SHT_PROGBITS, 0
        DATA
??DataTable23_2:
        DATA32
        DC32     ?_49

        SECTION `.text`:CODE:NOROOT(2)
        SECTION_TYPE SHT_PROGBITS, 0
        DATA
??DataTable23_3:
        DATA32
        DC32     ?_50
// 2334 #endif /* MBEDTLS_ECDH_C || MBEDTLS_ECDSA_C */
// 2335 
// 2336 #if defined(MBEDTLS_SSL_DTLS_HELLO_VERIFY)

        SECTION `.text`:CODE:NOROOT(1)
          CFI Block cfiBlock37 Using cfiCommon0
          CFI Function ssl_write_hello_verify_request
        THUMB
// 2337 static int ssl_write_hello_verify_request( mbedtls_ssl_context *ssl )
// 2338 {
ssl_write_hello_verify_request:
        PUSH     {R3-R7,LR}
          CFI R14 Frame(CFA, -4)
          CFI R7 Frame(CFA, -8)
          CFI R6 Frame(CFA, -12)
          CFI R5 Frame(CFA, -16)
          CFI R4 Frame(CFA, -20)
          CFI CFA R13+24
        SUB      SP,SP,#+16
          CFI CFA R13+40
        MOV      R5,R0
// 2339     int ret;
// 2340     unsigned char *p = ssl->out_msg + 4;
        LDR      R0,[R5, #+196]
        ADDS     R0,R0,#+4
        STR      R0,[SP, #+12]
// 2341     unsigned char *cookie_len_byte;
// 2342 
// 2343     MBEDTLS_SSL_DEBUG_MSG( 2, ( "=> write hello verify request" ) );
        LDR.W    R6,??DataTable27_9
        LDR.W    R0,??DataTable28
        STR      R0,[SP, #+0]
        MOVW     R3,#+2343
        MOV      R2,R6
        MOVS     R1,#+2
        MOV      R0,R5
          CFI FunCall mbedtls_debug_print_msg
        BL       mbedtls_debug_print_msg
// 2344 
// 2345     /*
// 2346      * struct {
// 2347      *   ProtocolVersion server_version;
// 2348      *   opaque cookie<0..2^8-1>;
// 2349      * } HelloVerifyRequest;
// 2350      */
// 2351 
// 2352     /* The RFC is not clear on this point, but sending the actual negotiated
// 2353      * version looks like the most interoperable thing to do. */
// 2354     mbedtls_ssl_write_version( ssl->major_ver, ssl->minor_ver,
// 2355                        ssl->conf->transport, p );
        LDR      R3,[SP, #+12]
        LDR      R0,[R5, #+0]
        LDR      R0,[R0, #+204]
        UBFX     R2,R0,#+1,#+1
        LDR      R1,[R5, #+20]
        LDR      R0,[R5, #+16]
          CFI FunCall mbedtls_ssl_write_version
        BL       mbedtls_ssl_write_version
// 2356     MBEDTLS_SSL_DEBUG_BUF( 3, "server version", p, 2 );
        MOVS     R0,#+2
        STR      R0,[SP, #+8]
        LDR      R0,[SP, #+12]
        STR      R0,[SP, #+4]
        LDR.W    R0,??DataTable28_1
        STR      R0,[SP, #+0]
        MOVW     R3,#+2356
        MOV      R2,R6
        MOVS     R1,#+3
        MOV      R0,R5
          CFI FunCall mbedtls_debug_print_buf
        BL       mbedtls_debug_print_buf
// 2357     p += 2;
        LDR      R0,[SP, #+12]
        ADDS     R0,R0,#+2
        STR      R0,[SP, #+12]
// 2358 
// 2359     /* If we get here, f_cookie_check is not null */
// 2360     if( ssl->conf->f_cookie_write == NULL )
        LDR      R0,[R5, #+0]
        LDR      R0,[R0, #+68]
        CMP      R0,#+0
        BNE.N    ??ssl_write_hello_verify_request_0
// 2361     {
// 2362         MBEDTLS_SSL_DEBUG_MSG( 1, ( "inconsistent cookie callbacks" ) );
        LDR.W    R0,??DataTable28_2
        STR      R0,[SP, #+0]
        MOVW     R3,#+2362
        MOV      R2,R6
        MOVS     R1,#+1
        MOV      R0,R5
          CFI FunCall mbedtls_debug_print_msg
        BL       mbedtls_debug_print_msg
// 2363         return( MBEDTLS_ERR_SSL_INTERNAL_ERROR );
        LDR.W    R0,??DataTable29  ;; 0xffff9400
        B.N      ??ssl_write_hello_verify_request_1
// 2364     }
// 2365 
// 2366     /* Skip length byte until we know the length */
// 2367     cookie_len_byte = p++;
??ssl_write_hello_verify_request_0:
        LDR      R7,[SP, #+12]
        MOV      R0,R7
        ADDS     R0,R0,#+1
        STR      R0,[SP, #+12]
// 2368 
// 2369     if( ( ret = ssl->conf->f_cookie_write( ssl->conf->p_cookie,
// 2370                                      &p, ssl->out_buf + MBEDTLS_SSL_OUT_BUFFER_LEN,
// 2371                                      ssl->cli_id, ssl->cli_id_len ) ) != 0 )
        LDR      R0,[R5, #+240]
        STR      R0,[SP, #+0]
        LDR      R3,[R5, #+236]
        LDR      R0,[R5, #+176]
        MOVW     R1,#+10573
        ADDS     R2,R0,R1
        ADD      R1,SP,#+12
        LDR      R0,[R5, #+0]
        LDR      R0,[R0, #+76]
        LDR      R4,[R5, #+0]
        LDR      R4,[R4, #+68]
          CFI FunCall
        BLX      R4
        MOVS     R4,R0
        BEQ.N    ??ssl_write_hello_verify_request_2
// 2372     {
// 2373         MBEDTLS_SSL_DEBUG_RET( 1, "f_cookie_write", ret );
        STR      R4,[SP, #+4]
        LDR.W    R0,??DataTable28_3
        STR      R0,[SP, #+0]
        MOVW     R3,#+2373
        MOV      R2,R6
        MOVS     R1,#+1
        MOV      R0,R5
          CFI FunCall mbedtls_debug_print_ret
        BL       mbedtls_debug_print_ret
// 2374         return( ret );
        MOV      R0,R4
        B.N      ??ssl_write_hello_verify_request_1
// 2375     }
// 2376 
// 2377     *cookie_len_byte = (unsigned char)( p - ( cookie_len_byte + 1 ) );
??ssl_write_hello_verify_request_2:
        LDR      R1,[SP, #+12]
        ADDS     R0,R7,#+1
        SUBS     R1,R1,R0
        STRB     R1,[R7, #+0]
// 2378 
// 2379     MBEDTLS_SSL_DEBUG_BUF( 3, "cookie sent", cookie_len_byte + 1, *cookie_len_byte );
        LDRB     R0,[R7, #+0]
        STR      R0,[SP, #+8]
        ADDS     R0,R7,#+1
        STR      R0,[SP, #+4]
        LDR.W    R0,??DataTable28_4
        STR      R0,[SP, #+0]
        MOVW     R3,#+2379
        MOV      R2,R6
        MOVS     R1,#+3
        MOV      R0,R5
          CFI FunCall mbedtls_debug_print_buf
        BL       mbedtls_debug_print_buf
// 2380 
// 2381     ssl->out_msglen  = p - ssl->out_msg;
        LDR      R1,[SP, #+12]
        LDR      R0,[R5, #+196]
        SUBS     R1,R1,R0
        STR      R1,[R5, #+204]
// 2382     ssl->out_msgtype = MBEDTLS_SSL_MSG_HANDSHAKE;
        MOVS     R0,#+22
        STR      R0,[R5, #+200]
// 2383     ssl->out_msg[0]  = MBEDTLS_SSL_HS_HELLO_VERIFY_REQUEST;
        MOVS     R0,#+3
        LDR      R1,[R5, #+196]
        STRB     R0,[R1, #+0]
// 2384 
// 2385     ssl->state = MBEDTLS_SSL_SERVER_HELLO_VERIFY_REQUEST_SENT;
        MOVS     R0,#+18
        STR      R0,[R5, #+4]
// 2386 
// 2387     if( ( ret = mbedtls_ssl_write_handshake_msg( ssl ) ) != 0 )
        MOV      R0,R5
          CFI FunCall mbedtls_ssl_write_handshake_msg
        BL       mbedtls_ssl_write_handshake_msg
        MOVS     R4,R0
        BEQ.N    ??ssl_write_hello_verify_request_3
// 2388     {
// 2389         MBEDTLS_SSL_DEBUG_RET( 1, "mbedtls_ssl_write_handshake_msg", ret );
        STR      R4,[SP, #+4]
        LDR.W    R0,??DataTable30
        STR      R0,[SP, #+0]
        MOVW     R3,#+2389
        MOV      R2,R6
        MOVS     R1,#+1
        MOV      R0,R5
          CFI FunCall mbedtls_debug_print_ret
        BL       mbedtls_debug_print_ret
// 2390         return( ret );
        MOV      R0,R4
        B.N      ??ssl_write_hello_verify_request_1
// 2391     }
// 2392 
// 2393 #if defined(MBEDTLS_SSL_PROTO_DTLS)
// 2394     if( ssl->conf->transport == MBEDTLS_SSL_TRANSPORT_DATAGRAM &&
// 2395         ( ret = mbedtls_ssl_flight_transmit( ssl ) ) != 0 )
??ssl_write_hello_verify_request_3:
        LDR      R0,[R5, #+0]
        LDR      R0,[R0, #+204]
        UBFX     R0,R0,#+1,#+1
        CMP      R0,#+0
        BEQ.N    ??ssl_write_hello_verify_request_4
        MOV      R0,R5
          CFI FunCall mbedtls_ssl_flight_transmit
        BL       mbedtls_ssl_flight_transmit
        MOVS     R4,R0
        BEQ.N    ??ssl_write_hello_verify_request_4
// 2396     {
// 2397         MBEDTLS_SSL_DEBUG_RET( 1, "mbedtls_ssl_flight_transmit", ret );
        STR      R4,[SP, #+4]
        LDR.W    R0,??DataTable29_1
        STR      R0,[SP, #+0]
        MOVW     R3,#+2397
        MOV      R2,R6
        MOVS     R1,#+1
        MOV      R0,R5
          CFI FunCall mbedtls_debug_print_ret
        BL       mbedtls_debug_print_ret
// 2398         return( ret );
        MOV      R0,R4
        B.N      ??ssl_write_hello_verify_request_1
// 2399     }
// 2400 #endif /* MBEDTLS_SSL_PROTO_DTLS */
// 2401 
// 2402     MBEDTLS_SSL_DEBUG_MSG( 2, ( "<= write hello verify request" ) );
??ssl_write_hello_verify_request_4:
        LDR.W    R0,??DataTable30_1
        STR      R0,[SP, #+0]
        MOVW     R3,#+2402
        MOV      R2,R6
        MOVS     R1,#+2
        MOV      R0,R5
          CFI FunCall mbedtls_debug_print_msg
        BL       mbedtls_debug_print_msg
// 2403 
// 2404     return( 0 );
        MOVS     R0,#+0
??ssl_write_hello_verify_request_1:
        ADD      SP,SP,#+20
          CFI CFA R13+20
        POP      {R4-R7,PC}       ;; return
// 2405 }
          CFI EndBlock cfiBlock37

        SECTION `.text`:CODE:NOROOT(2)
        SECTION_TYPE SHT_PROGBITS, 0
        DATA
??DataTable24:
        DATA32
        DC32     ?_51

        SECTION `.text`:CODE:NOROOT(2)
        SECTION_TYPE SHT_PROGBITS, 0
        DATA
??DataTable24_1:
        DATA32
        DC32     ?_52

        SECTION `.text`:CODE:NOROOT(2)
        SECTION_TYPE SHT_PROGBITS, 0
        DATA
??DataTable24_2:
        DATA32
        DC32     ?_53

        SECTION `.text`:CODE:NOROOT(2)
        SECTION_TYPE SHT_PROGBITS, 0
        DATA
??DataTable24_3:
        DATA32
        DC32     ?_54

        SECTION `.text`:CODE:NOROOT(2)
        SECTION_TYPE SHT_PROGBITS, 0
        DATA
??DataTable24_4:
        DATA32
        DC32     ?_55

        SECTION `.text`:CODE:NOROOT(2)
        SECTION_TYPE SHT_PROGBITS, 0
        DATA
??DataTable24_5:
        DATA32
        DC32     ?_56

        SECTION `.text`:CODE:NOROOT(2)
        SECTION_TYPE SHT_PROGBITS, 0
        DATA
??DataTable24_6:
        DATA32
        DC32     ?_57

        SECTION `.text`:CODE:NOROOT(2)
        SECTION_TYPE SHT_PROGBITS, 0
        DATA
??DataTable24_7:
        DATA32
        DC32     ?_58

        SECTION `.text`:CODE:NOROOT(2)
        SECTION_TYPE SHT_PROGBITS, 0
        DATA
??DataTable24_8:
        DATA32
        DC32     ?_59

        SECTION `.text`:CODE:NOROOT(2)
        SECTION_TYPE SHT_PROGBITS, 0
        DATA
??DataTable24_9:
        DATA32
        DC32     ?_60

        SECTION `.text`:CODE:NOROOT(2)
        SECTION_TYPE SHT_PROGBITS, 0
        DATA
??DataTable24_10:
        DATA32
        DC32     ?_61

        SECTION `.text`:CODE:NOROOT(2)
        SECTION_TYPE SHT_PROGBITS, 0
        DATA
??DataTable24_11:
        DATA32
        DC32     ?_62

        SECTION `.text`:CODE:NOROOT(2)
        SECTION_TYPE SHT_PROGBITS, 0
        DATA
??DataTable24_12:
        DATA32
        DC32     ?_63
// 2406 #endif /* MBEDTLS_SSL_DTLS_HELLO_VERIFY */
// 2407 

        SECTION `.text`:CODE:NOROOT(1)
          CFI Block cfiBlock38 Using cfiCommon0
          CFI Function ssl_write_server_hello
        THUMB
// 2408 static int ssl_write_server_hello( mbedtls_ssl_context *ssl )
// 2409 {
ssl_write_server_hello:
        PUSH     {R3-R9,LR}
          CFI R14 Frame(CFA, -4)
          CFI R9 Frame(CFA, -8)
          CFI R8 Frame(CFA, -12)
          CFI R7 Frame(CFA, -16)
          CFI R6 Frame(CFA, -20)
          CFI R5 Frame(CFA, -24)
          CFI R4 Frame(CFA, -28)
          CFI CFA R13+32
        SUB      SP,SP,#+16
          CFI CFA R13+48
        MOV      R5,R0
// 2410 #if defined(MBEDTLS_HAVE_TIME)
// 2411     mbedtls_time_t t;
// 2412 #endif
// 2413     int ret;
// 2414     size_t olen, ext_len = 0, n;
// 2415     unsigned char *buf, *p;
// 2416 
// 2417     MBEDTLS_SSL_DEBUG_MSG( 2, ( "=> write server hello" ) );
        LDR.W    R6,??DataTable27_9
        LDR.W    R0,??DataTable29_2
        STR      R0,[SP, #+0]
        MOVW     R3,#+2417
        MOV      R2,R6
        MOVS     R1,#+2
        MOV      R0,R5
          CFI FunCall mbedtls_debug_print_msg
        BL       mbedtls_debug_print_msg
// 2418 
// 2419 #if defined(MBEDTLS_SSL_DTLS_HELLO_VERIFY)
// 2420     if( ssl->conf->transport == MBEDTLS_SSL_TRANSPORT_DATAGRAM &&
// 2421         ssl->handshake->verify_cookie_len != 0 )
        LDR      R0,[R5, #+0]
        LDR      R0,[R0, #+204]
        UBFX     R0,R0,#+1,#+1
        CMP      R0,#+0
        BEQ.N    ??ssl_write_server_hello_0
        LDR      R0,[R5, #+60]
        LDRB     R0,[R0, #+480]
        CMP      R0,#+0
        BEQ.N    ??ssl_write_server_hello_0
// 2422     {
// 2423         MBEDTLS_SSL_DEBUG_MSG( 2, ( "client hello was not authenticated" ) );
        LDR.W    R0,??DataTable30_2
        STR      R0,[SP, #+0]
        MOVW     R3,#+2423
        MOV      R2,R6
        MOVS     R1,#+2
        MOV      R0,R5
          CFI FunCall mbedtls_debug_print_msg
        BL       mbedtls_debug_print_msg
// 2424         MBEDTLS_SSL_DEBUG_MSG( 2, ( "<= write server hello" ) );
        LDR.W    R0,??DataTable31
        STR      R0,[SP, #+0]
        MOVW     R3,#+2424
        MOV      R2,R6
        MOVS     R1,#+2
        MOV      R0,R5
          CFI FunCall mbedtls_debug_print_msg
        BL       mbedtls_debug_print_msg
// 2425 
// 2426         return( ssl_write_hello_verify_request( ssl ) );
        MOV      R0,R5
          CFI FunCall ssl_write_hello_verify_request
        BL       ssl_write_hello_verify_request
        B.N      ??ssl_write_server_hello_1
// 2427     }
// 2428 #endif /* MBEDTLS_SSL_DTLS_HELLO_VERIFY */
// 2429 
// 2430     if( ssl->conf->f_rng == NULL )
??ssl_write_server_hello_0:
        LDR      R0,[R5, #+0]
        LDR      R0,[R0, #+24]
        CMP      R0,#+0
